

Microchip Technology PIC18 LITE Macro Assembler V1.42 build -159332390 
                                                                                               Sun Sep 03 20:10:43 2017

Microchip Technology Omniscient Code Generator v1.42 (Free mode) build 201704130522
     1                           	processor	18F26K40
     2                           	fnconf	rparam,??,?,0
     3                           	opt	pw 120
     4                           	opt	lm
     5                           	psect	nvCOMRAM,global,class=COMRAM,space=1,delta=1,noexec
     6                           	psect	cinit,global,reloc=2,class=CODE,delta=1
     7                           	psect	bssCOMRAM,global,class=COMRAM,space=1,delta=1,noexec
     8                           	psect	cstackCOMRAM,global,class=COMRAM,space=1,delta=1,noexec
     9                           	psect	text0,global,reloc=2,class=CODE,delta=1
    10                           	psect	text1,global,reloc=2,class=CODE,delta=1
    11                           	psect	text2,global,reloc=2,class=CODE,delta=1
    12                           	psect	text3,global,reloc=2,class=CODE,delta=1
    13                           	psect	text4,global,reloc=2,class=CODE,delta=1
    14                           	psect	text5,global,reloc=2,class=CODE,delta=1
    15                           	psect	text6,global,reloc=2,class=CODE,delta=1
    16                           	psect	text7,global,reloc=2,class=CODE,delta=1
    17                           	psect	text8,global,reloc=2,class=CODE,delta=1
    18                           	psect	text9,global,reloc=2,class=CODE,delta=1
    19                           	psect	text10,global,reloc=2,class=CODE,delta=1
    20                           	psect	text11,global,reloc=2,class=CODE,delta=1
    21                           	psect	text12,global,reloc=2,class=CODE,delta=1
    22                           	psect	text13,global,reloc=2,class=CODE,delta=1
    23                           	psect	text14,global,reloc=2,class=CODE,delta=1
    24                           	psect	text15,global,reloc=2,class=CODE,delta=1
    25                           	psect	text16,global,reloc=2,class=CODE,delta=1
    26                           	psect	text17,global,reloc=2,class=CODE,delta=1
    27                           	psect	text18,global,reloc=2,class=CODE,delta=1
    28                           	psect	text19,global,reloc=2,class=CODE,delta=1
    29                           	psect	text20,global,reloc=2,class=CODE,delta=1
    30                           	psect	text21,global,reloc=2,class=CODE,delta=1
    31                           	psect	text22,global,reloc=2,class=CODE,delta=1
    32                           	psect	intcode,global,reloc=2,class=CODE,delta=1
    33                           	psect	text24,global,reloc=2,class=CODE,delta=1
    34                           	psect	text25,global,reloc=2,class=CODE,delta=1
    35                           	psect	text26,global,reloc=2,class=CODE,delta=1
    36                           	psect	text27,global,reloc=2,class=CODE,delta=1
    37                           	psect	intsave_regs,global,class=BIGRAM,space=1,delta=1,noexec
    38                           	psect	text28,global,reloc=2,class=CODE,delta=1
    39                           	psect	rparam,global,class=COMRAM,space=1,delta=1,noexec
    40                           	psect	temp,global,ovrld,common,class=COMRAM,space=1,delta=1
    41  0000                     
    42                           ; Version 1.42
    43                           ; Generated 13/04/2017 GMT
    44                           ; 
    45                           ; Copyright © 2017, Microchip Technology Inc. and its subsidiaries ("Microchip")
    46                           ; All rights reserved.
    47                           ; 
    48                           ; This software is developed by Microchip Technology Inc. and its subsidiaries ("Microch
      +                          ip").
    49                           ; 
    50                           ; Redistribution and use in source and binary forms, with or without modification, are
    51                           ; permitted provided that the following conditions are met:
    52                           ; 
    53                           ;     1. Redistributions of source code must retain the above copyright notice, this lis
      +                          t of
    54                           ;        conditions and the following disclaimer.
    55                           ; 
    56                           ;     2. Redistributions in binary form must reproduce the above copyright notice, this 
      +                          list
    57                           ;        of conditions and the following disclaimer in the documentation and/or other
    58                           ;        materials provided with the distribution.
    59                           ; 
    60                           ;     3. Microchip's name may not be used to endorse or promote products derived from th
      +                          is
    61                           ;        software without specific prior written permission.
    62                           ; 
    63                           ; THIS SOFTWARE IS PROVIDED BY MICROCHIP "AS IS" AND ANY EXPRESS OR IMPLIED WARRANTIES,
    64                           ; INCLUDING, BUT NOT LIMITED TO, THE IMPLIED WARRANTIES OF MERCHANTABILITY AND FITNESS F
      +                          OR
    65                           ; PURPOSE ARE DISCLAIMED.  IN NO EVENT SHALL MICROCHIP BE LIABLE FOR ANY DIRECT, INDIREC
      +                          T,
    66                           ; INCIDENTAL, SPECIAL, EXEMPLARY, OR CONSEQUENTIAL DAMAGES (INCLUDING BUT NOT LIMITED TO
    67                           ; PROCUREMENT OF SUBSTITUTE GOODS OR SERVICES; LOSS OF USE, DATA OR PROFITS; OR BUSINESS
    68                           ; INTERRUPTION) HOWSOEVER CAUSED AND ON ANY THEORY OF LIABILITY, WHETHER IN CONTRACT, ST
      +                          RICT
    69                           ; LIABILITY, OR TORT (INCLUDING NEGLIGENCE OR OTHERWISE) ARISING IN ANY WAY OUT OF THE U
      +                          SE OF
    70                           ; THIS SOFTWARE, EVEN IF ADVISED OF THE POSSIBILITY OF SUCH DAMAGE.
    71                           ; 
    72                           ; 
    73                           ; Code-generator required, PIC18F26K40 Definitions
    74                           ; 
    75                           ; SFR Addresses
    76  0000                     
    77                           	psect	nvCOMRAM
    78  000029                     __pnvCOMRAM:
    79                           	opt stack 0
    80  000029                     _color:
    81                           	opt stack 0
    82  000029                     	ds	1
    83  0000                     _PIR7bits	set	3793
    84  0000                     _ADACTPPSbits	set	3758
    85  0000                     _PPSLOCKbits	set	3744
    86  0000                     _PPSLOCK	set	3744
    87  0000                     _PIR0bits	set	3786
    88  0000                     _PIE0bits	set	3778
    89  0000                     _OSCTUNE	set	3805
    90  0000                     _OSCFRQ	set	3806
    91  0000                     _OSCEN	set	3804
    92  0000                     _OSCCON3	set	3802
    93  0000                     _OSCCON1	set	3800
    94  0000                     _ADCON1bits	set	3929
    95  0000                     _ADCON2bits	set	3930
    96  0000                     _ADCON3bits	set	3931
    97  0000                     _ADPCH	set	3935
    98  0000                     _ADACQ	set	3932
    99  0000                     _ADPRE	set	3934
   100  0000                     _ADCAP	set	3933
   101  0000                     _ADREF	set	3928
   102  0000                     _ADCLK	set	3927
   103  0000                     _ADACT	set	3926
   104  0000                     _ADCON3	set	3931
   105  0000                     _ADCON2	set	3930
   106  0000                     _ADCON1	set	3929
   107  0000                     _IOCBPbits	set	3860
   108  0000                     _IOCBNbits	set	3859
   109  0000                     _IOCBFbits	set	3858
   110  0000                     _ODCONC	set	3871
   111  0000                     _ODCONB	set	3863
   112  0000                     _ODCONA	set	3855
   113  0000                     _WPUC	set	3872
   114  0000                     _WPUA	set	3856
   115  0000                     _WPUB	set	3864
   116  0000                     _WPUE	set	3885
   117  0000                     _ANSELA	set	3857
   118  0000                     _ANSELB	set	3865
   119  0000                     _ANSELC	set	3873
   120  0000                     _ADPCH0	set	31480
   121  0000                     _PORTCbits	set	3983
   122  0000                     _NVMDAT	set	3968
   123  0000                     _NVMADRL	set	3966
   124  0000                     _NVMADRH	set	3967
   125  0000                     _NVMCON2	set	3970
   126  0000                     _TABLAT	set	4085
   127  0000                     _TBLPTRL	set	4086
   128  0000                     _TBLPTRH	set	4087
   129  0000                     _TBLPTRU	set	4088
   130  0000                     _NVMCON1bits	set	3969
   131  0000                     _ADERRL	set	3950
   132  0000                     _ADERRH	set	3951
   133  0000                     _ADPREVL	set	3937
   134  0000                     _ADPREVH	set	3938
   135  0000                     _ADFLTRL	set	3954
   136  0000                     _ADFLTRH	set	3955
   137  0000                     _ADSTATbits	set	3941
   138  0000                     _ADACCL	set	3952
   139  0000                     _ADACCH	set	3953
   140  0000                     _ADCNT	set	3943
   141  0000                     _ADRESL	set	3939
   142  0000                     _ADRESH	set	3940
   143  0000                     _ADCON0bits	set	3936
   144  0000                     _ADCON0	set	3936
   145  0000                     _ADSTPTH	set	3945
   146  0000                     _ADSTPTL	set	3944
   147  0000                     _ADUTHH	set	3949
   148  0000                     _ADUTHL	set	3948
   149  0000                     _ADLTHH	set	3947
   150  0000                     _ADLTHL	set	3946
   151  0000                     _ADRPT	set	3942
   152  0000                     _ADSTAT	set	3941
   153  0000                     _TRISC	set	3978
   154  0000                     _TRISB	set	3977
   155  0000                     _TRISA	set	3976
   156  0000                     _LATC	set	3973
   157  0000                     _LATB	set	3972
   158  0000                     _LATA	set	3971
   159  0000                     _INTCONbits	set	4082
   160  0000                     _RB0	set	31856
   161  0000                     _GIE	set	32663
   162                           
   163                           ; #config settings
   164  0000                     
   165                           	psect	cinit
   166  000612                     __pcinit:
   167                           	opt stack 0
   168  000612                     start_initialization:
   169                           	opt stack 0
   170  000612                     __initialization:
   171                           	opt stack 0
   172                           
   173                           ; Clear objects allocated to COMRAM (2 bytes)
   174  000612  6A28               	clrf	(__pbssCOMRAM+1)& (0+255),c
   175  000614  6A27               	clrf	__pbssCOMRAM& (0+255),c
   176  000616                     end_of_initialization:
   177                           	opt stack 0
   178  000616                     __end_of__initialization:
   179                           	opt stack 0
   180  000616  902A               	bcf	int$flags,0,c	;clear compiler interrupt flag (level 1)
   181  000618  922A               	bcf	int$flags,1,c	;clear compiler interrupt flag (level 2)
   182  00061A  0E00               	movlw	low (__Lmediumconst shr (0+16))
   183  00061C  6EF8               	movwf	tblptru,c
   184  00061E  0100               	movlb	0
   185  000620  EF95  F001         	goto	_main	;jump to C main() function
   186                           tblptru	equ	0xFF8
   187                           
   188                           	psect	bssCOMRAM
   189  000027                     __pbssCOMRAM:
   190                           	opt stack 0
   191  000027                     _IOCBF0_InterruptHandler:
   192                           	opt stack 0
   193  000027                     	ds	2
   194                           tblptru	equ	0xFF8
   195                           
   196                           	psect	cstackCOMRAM
   197  000001                     __pcstackCOMRAM:
   198                           	opt stack 0
   199  000001                     DATAEE_WriteByte@bAdd:
   200                           	opt stack 0
   201                           
   202                           ; 2 bytes @ 0x0
   203  000001                     	ds	2
   204  000003                     DATAEE_WriteByte@bData:
   205                           	opt stack 0
   206                           
   207                           ; 1 bytes @ 0x2
   208  000003                     	ds	1
   209  000004                     DATAEE_WriteByte@GIEBitValue:
   210                           	opt stack 0
   211                           
   212                           ; 1 bytes @ 0x3
   213  000004                     	ds	1
   214  000005                     ??_INTERRUPT_InterruptManager:
   215                           
   216                           ; 1 bytes @ 0x4
   217  000005                     	ds	14
   218  000013                     ?_ADCC_GetSingleConversion:
   219                           	opt stack 0
   220  000013                     brightness@grn:
   221                           	opt stack 0
   222  000013                     IOCBF0_SetInterruptHandler@InterruptHandler:
   223                           	opt stack 0
   224  000013                     DATAEE_ReadByte@bAdd:
   225                           	opt stack 0
   226                           
   227                           ; 2 bytes @ 0x12
   228  000013                     	ds	1
   229  000014                     brightness@blu:
   230                           	opt stack 0
   231                           
   232                           ; 1 bytes @ 0x13
   233  000014                     	ds	1
   234  000015                     ??_PIN_MANAGER_Initialize:
   235  000015                     ??_ADCC_GetSingleConversion:
   236  000015                     brightness@value:
   237                           	opt stack 0
   238                           
   239                           ; 1 bytes @ 0x14
   240  000015                     	ds	1
   241  000016                     brightness@red:
   242                           	opt stack 0
   243                           
   244                           ; 1 bytes @ 0x15
   245  000016                     	ds	1
   246  000017                     PIN_MANAGER_Initialize@state:
   247                           	opt stack 0
   248  000017                     ADCC_GetSingleConversion@channel:
   249                           	opt stack 0
   250  000017                     brightness@bit7:
   251                           	opt stack 0
   252                           
   253                           ; 1 bytes @ 0x16
   254  000017                     	ds	1
   255  000018                     brightness@bit6:
   256                           	opt stack 0
   257                           
   258                           ; 1 bytes @ 0x17
   259  000018                     	ds	1
   260  000019                     brightness@bit5:
   261                           	opt stack 0
   262                           
   263                           ; 1 bytes @ 0x18
   264  000019                     	ds	1
   265  00001A                     brightness@bit4:
   266                           	opt stack 0
   267                           
   268                           ; 1 bytes @ 0x19
   269  00001A                     	ds	1
   270  00001B                     brightness@bit3:
   271                           	opt stack 0
   272                           
   273                           ; 1 bytes @ 0x1A
   274  00001B                     	ds	1
   275  00001C                     brightness@bit2:
   276                           	opt stack 0
   277                           
   278                           ; 1 bytes @ 0x1B
   279  00001C                     	ds	1
   280  00001D                     brightness@bit1:
   281                           	opt stack 0
   282                           
   283                           ; 1 bytes @ 0x1C
   284  00001D                     	ds	1
   285  00001E                     brightness@bit0:
   286                           	opt stack 0
   287                           
   288                           ; 1 bytes @ 0x1D
   289  00001E                     	ds	1
   290  00001F                     white@v:
   291                           	opt stack 0
   292  00001F                     cyan@v:
   293                           	opt stack 0
   294  00001F                     yellow@v:
   295                           	opt stack 0
   296  00001F                     magenta@v:
   297                           	opt stack 0
   298  00001F                     green@v:
   299                           	opt stack 0
   300  00001F                     blue@v:
   301                           	opt stack 0
   302  00001F                     red@v:
   303                           	opt stack 0
   304                           
   305                           ; 1 bytes @ 0x1E
   306  00001F                     	ds	1
   307  000020                     ??_main:
   308                           
   309                           ; 1 bytes @ 0x1F
   310  000020                     	ds	2
   311  000022                     main@lastValue:
   312                           	opt stack 0
   313                           
   314                           ; 1 bytes @ 0x21
   315  000022                     	ds	1
   316  000023                     main@ADC_value:
   317                           	opt stack 0
   318                           
   319                           ; 2 bytes @ 0x22
   320  000023                     	ds	2
   321  000025                     main@j:
   322                           	opt stack 0
   323                           
   324                           ; 1 bytes @ 0x24
   325  000025                     	ds	1
   326  000026                     main@value:
   327                           	opt stack 0
   328                           
   329                           ; 1 bytes @ 0x25
   330  000026                     	ds	1
   331                           tblptru	equ	0xFF8
   332                           
   333 ;;
   334 ;;Main: autosize = 0, tempsize = 2, incstack = 0, save=0
   335 ;;
   336 ;; *************** function _main *****************
   337 ;; Defined at:
   338 ;;		line 29 in file "main.c"
   339 ;; Parameters:    Size  Location     Type
   340 ;;		None
   341 ;; Auto vars:     Size  Location     Type
   342 ;;  j               1   36[COMRAM] unsigned char 
   343 ;;  ADC_value       2   34[COMRAM] unsigned int 
   344 ;;  value           1   37[COMRAM] unsigned char 
   345 ;;  lastValue       1   33[COMRAM] unsigned char 
   346 ;; Return value:  Size  Location     Type
   347 ;;                  1    wreg      void 
   348 ;; Registers used:
   349 ;;		wreg, status,2, status,0, cstack
   350 ;; Tracked objects:
   351 ;;		On entry : 0/0
   352 ;;		On exit  : 0/0
   353 ;;		Unchanged: 0/0
   354 ;; Data sizes:     COMRAM   BANK0   BANK1   BANK2   BANK3   BANK4   BANK5   BANK6   BANK7   BANK8   BANK9  BANK10  BANK1
      +1  BANK12  BANK13  BANK14
   355 ;;      Params:         0       0       0       0       0       0       0       0       0       0       0       0       
      +0       0       0       0
   356 ;;      Locals:         5       0       0       0       0       0       0       0       0       0       0       0       
      +0       0       0       0
   357 ;;      Temps:          2       0       0       0       0       0       0       0       0       0       0       0       
      +0       0       0       0
   358 ;;      Totals:         7       0       0       0       0       0       0       0       0       0       0       0       
      +0       0       0       0
   359 ;;Total ram usage:        7 bytes
   360 ;; Hardware stack levels required when called:    8
   361 ;; This function calls:
   362 ;;		_ADCC_GetSingleConversion
   363 ;;		_SYSTEM_Initialize
   364 ;;		_blue
   365 ;;		_cyan
   366 ;;		_green
   367 ;;		_magenta
   368 ;;		_off
   369 ;;		_red
   370 ;;		_white
   371 ;;		_yellow
   372 ;; This function is called by:
   373 ;;		Startup code after reset
   374 ;; This function uses a non-reentrant model
   375 ;;
   376                           
   377                           	psect	text0
   378  00032A                     __ptext0:
   379                           	opt stack 0
   380  00032A                     _main:
   381                           	opt stack 23
   382                           
   383                           ;main.c: 32: SYSTEM_Initialize();
   384                           
   385                           ;incstack = 0
   386  00032A  EC24  F003         	call	_SYSTEM_Initialize	;wreg free
   387                           
   388                           ;main.c: 61: unsigned int ADC_value = 0;
   389  00032E  0E00               	movlw	0
   390  000330  6E24               	movwf	main@ADC_value+1,c
   391  000332  0E00               	movlw	0
   392  000334  6E23               	movwf	main@ADC_value,c
   393                           
   394                           ;main.c: 62: unsigned char value = 0;
   395  000336  0E00               	movlw	0
   396  000338  6E26               	movwf	main@value,c
   397                           
   398                           ;main.c: 63: unsigned char lastValue = 0;
   399  00033A  0E00               	movlw	0
   400  00033C  6E22               	movwf	main@lastValue,c
   401                           
   402                           ;main.c: 65: color = 0;
   403  00033E  0E00               	movlw	0
   404  000340  6E29               	movwf	_color,c
   405  000342                     l384:
   406                           
   407                           ;main.c: 67: {
   408                           ;main.c: 68: ADC_value = ADCC_GetSingleConversion(ADPCH0);
   409  000342  0E00               	movlw	0
   410  000344  010F               	movlb	15	; () banked
   411  000346  B15F               	btfsc	95,0,b	;volatile
   412  000348  0E01               	movlw	1
   413  00034A  EC69  F002         	call	_ADCC_GetSingleConversion
   414  00034E  C013  F023         	movff	?_ADCC_GetSingleConversion,main@ADC_value
   415  000352  C014  F024         	movff	?_ADCC_GetSingleConversion+1,main@ADC_value+1
   416                           
   417                           ;main.c: 69: value = ( ADC_value >> 2 );
   418  000356  C023  F020         	movff	main@ADC_value,??_main
   419  00035A  C024  F021         	movff	main@ADC_value+1,??_main+1
   420  00035E  90D8               	bcf	status,0,c
   421  000360  3221               	rrcf	??_main+1,f,c
   422  000362  3220               	rrcf	??_main,f,c
   423  000364  90D8               	bcf	status,0,c
   424  000366  3221               	rrcf	??_main+1,f,c
   425  000368  3220               	rrcf	??_main,f,c
   426  00036A  5020               	movf	??_main,w,c
   427  00036C  6E26               	movwf	main@value,c
   428                           
   429                           ;main.c: 71: for( unsigned char j = 0; j < 25; j++ ){
   430  00036E  0E00               	movlw	0
   431  000370  6E25               	movwf	main@j,c
   432  000372                     l2107:
   433  000372  0E18               	movlw	24
   434  000374  6425               	cpfsgt	main@j,c
   435  000376  D001               	goto	l2111
   436  000378  D035               	goto	l2145
   437  00037A                     l2111:
   438                           
   439                           ;main.c: 72: if (color < 1){
   440  00037A  5029               	movf	_color,w,c
   441  00037C  A4D8               	btfss	status,2,c
   442  00037E  D003               	goto	l2115
   443                           
   444                           ;main.c: 73: off();
   445  000380  ECF5  F002         	call	_off	;wreg free
   446                           
   447                           ;main.c: 74: }
   448  000384  D02D               	goto	l2141
   449  000386                     l2115:
   450                           
   451                           ;main.c: 75: else if (color < 2){
   452  000386  0E02               	movlw	2
   453  000388  6029               	cpfslt	_color,c
   454  00038A  D004               	goto	l2119
   455                           
   456                           ;main.c: 76: blue(value);
   457  00038C  5026               	movf	main@value,w,c
   458  00038E  ECEA  F002         	call	_blue
   459                           
   460                           ;main.c: 77: }
   461  000392  D026               	goto	l2141
   462  000394                     l2119:
   463                           
   464                           ;main.c: 78: else if (color < 3){
   465  000394  0E03               	movlw	3
   466  000396  6029               	cpfslt	_color,c
   467  000398  D004               	goto	l2123
   468                           
   469                           ;main.c: 79: red(value);
   470  00039A  5026               	movf	main@value,w,c
   471  00039C  ECBE  F002         	call	_red
   472                           
   473                           ;main.c: 80: }
   474  0003A0  D01F               	goto	l2141
   475  0003A2                     l2123:
   476                           
   477                           ;main.c: 81: else if (color < 4){
   478  0003A2  0E04               	movlw	4
   479  0003A4  6029               	cpfslt	_color,c
   480  0003A6  D004               	goto	l2127
   481                           
   482                           ;main.c: 82: magenta(value);
   483  0003A8  5026               	movf	main@value,w,c
   484  0003AA  ECC9  F002         	call	_magenta
   485                           
   486                           ;main.c: 83: }
   487  0003AE  D018               	goto	l2141
   488  0003B0                     l2127:
   489                           
   490                           ;main.c: 84: else if (color < 5){
   491  0003B0  0E05               	movlw	5
   492  0003B2  6029               	cpfslt	_color,c
   493  0003B4  D004               	goto	l2131
   494                           
   495                           ;main.c: 85: green(value);
   496  0003B6  5026               	movf	main@value,w,c
   497  0003B8  ECD4  F002         	call	_green
   498                           
   499                           ;main.c: 86: }
   500  0003BC  D011               	goto	l2141
   501  0003BE                     l2131:
   502                           
   503                           ;main.c: 87: else if (color < 6){
   504  0003BE  0E06               	movlw	6
   505  0003C0  6029               	cpfslt	_color,c
   506  0003C2  D004               	goto	l2135
   507                           
   508                           ;main.c: 88: cyan(value);
   509  0003C4  5026               	movf	main@value,w,c
   510  0003C6  ECDF  F002         	call	_cyan
   511                           
   512                           ;main.c: 89: }
   513  0003CA  D00A               	goto	l2141
   514  0003CC                     l2135:
   515                           
   516                           ;main.c: 90: else if (color < 7){
   517  0003CC  0E07               	movlw	7
   518  0003CE  6029               	cpfslt	_color,c
   519  0003D0  D004               	goto	l2139
   520                           
   521                           ;main.c: 91: yellow(value);
   522  0003D2  5026               	movf	main@value,w,c
   523  0003D4  ECA8  F002         	call	_yellow
   524                           
   525                           ;main.c: 92: }
   526  0003D8  D003               	goto	l2141
   527  0003DA                     l2139:
   528                           
   529                           ;main.c: 93: else{
   530                           ;main.c: 94: white(value);
   531  0003DA  5026               	movf	main@value,w,c
   532  0003DC  ECB3  F002         	call	_white
   533  0003E0                     l2141:
   534  0003E0  2A25               	incf	main@j,f,c
   535  0003E2  D7C7               	goto	l2107
   536  0003E4                     l2145:
   537                           
   538                           ;main.c: 95: }
   539                           ;main.c: 96: }
   540                           ;main.c: 98: _delay((unsigned long)((10)*(64000000/4000000.0)));
   541  0003E4  0E35               	movlw	53
   542  0003E6                     u1037:
   543  0003E6  2EE8               	decfsz	wreg,f,c
   544  0003E8  D7FE               	bra	u1037
   545  0003EA  F000               	nop	
   546  0003EC  D7AA               	goto	l384
   547  0003EE                     __end_of_main:
   548                           	opt stack 0
   549                           tblptru	equ	0xFF8
   550                           wreg	equ	0xFE8
   551                           status	equ	0xFD8
   552                           
   553 ;; *************** function _yellow *****************
   554 ;; Defined at:
   555 ;;		line 338 in file "main.c"
   556 ;; Parameters:    Size  Location     Type
   557 ;;  v               1    wreg     unsigned char 
   558 ;; Auto vars:     Size  Location     Type
   559 ;;  v               1   30[COMRAM] unsigned char 
   560 ;; Return value:  Size  Location     Type
   561 ;;                  1    wreg      void 
   562 ;; Registers used:
   563 ;;		wreg, status,2, status,0, cstack
   564 ;; Tracked objects:
   565 ;;		On entry : 0/0
   566 ;;		On exit  : 0/0
   567 ;;		Unchanged: 0/0
   568 ;; Data sizes:     COMRAM   BANK0   BANK1   BANK2   BANK3   BANK4   BANK5   BANK6   BANK7   BANK8   BANK9  BANK10  BANK1
      +1  BANK12  BANK13  BANK14
   569 ;;      Params:         0       0       0       0       0       0       0       0       0       0       0       0       
      +0       0       0       0
   570 ;;      Locals:         1       0       0       0       0       0       0       0       0       0       0       0       
      +0       0       0       0
   571 ;;      Temps:          0       0       0       0       0       0       0       0       0       0       0       0       
      +0       0       0       0
   572 ;;      Totals:         1       0       0       0       0       0       0       0       0       0       0       0       
      +0       0       0       0
   573 ;;Total ram usage:        1 bytes
   574 ;; Hardware stack levels used:    1
   575 ;; Hardware stack levels required when called:    7
   576 ;; This function calls:
   577 ;;		_brightness
   578 ;; This function is called by:
   579 ;;		_main
   580 ;; This function uses a non-reentrant model
   581 ;;
   582                           
   583                           	psect	text1
   584  000550                     __ptext1:
   585                           	opt stack 0
   586  000550                     _yellow:
   587                           	opt stack 23
   588                           
   589                           ;incstack = 0
   590                           ;yellow@v stored from wreg
   591  000550  6E1F               	movwf	yellow@v,c
   592                           
   593                           ;main.c: 339: brightness(1, 1, 0, v);
   594  000552  0E01               	movlw	1
   595  000554  6E13               	movwf	brightness@grn,c
   596  000556  0E00               	movlw	0
   597  000558  6E14               	movwf	brightness@blu,c
   598  00055A  C01F  F015         	movff	yellow@v,brightness@value
   599  00055E  0E01               	movlw	1
   600  000560  EC48  F000         	call	_brightness
   601  000564  0012               	return		;funcret
   602  000566                     __end_of_yellow:
   603                           	opt stack 0
   604                           tblptru	equ	0xFF8
   605                           wreg	equ	0xFE8
   606                           status	equ	0xFD8
   607                           
   608 ;; *************** function _white *****************
   609 ;; Defined at:
   610 ;;		line 328 in file "main.c"
   611 ;; Parameters:    Size  Location     Type
   612 ;;  v               1    wreg     unsigned char 
   613 ;; Auto vars:     Size  Location     Type
   614 ;;  v               1   30[COMRAM] unsigned char 
   615 ;; Return value:  Size  Location     Type
   616 ;;                  1    wreg      void 
   617 ;; Registers used:
   618 ;;		wreg, status,2, status,0, cstack
   619 ;; Tracked objects:
   620 ;;		On entry : 0/0
   621 ;;		On exit  : 0/0
   622 ;;		Unchanged: 0/0
   623 ;; Data sizes:     COMRAM   BANK0   BANK1   BANK2   BANK3   BANK4   BANK5   BANK6   BANK7   BANK8   BANK9  BANK10  BANK1
      +1  BANK12  BANK13  BANK14
   624 ;;      Params:         0       0       0       0       0       0       0       0       0       0       0       0       
      +0       0       0       0
   625 ;;      Locals:         1       0       0       0       0       0       0       0       0       0       0       0       
      +0       0       0       0
   626 ;;      Temps:          0       0       0       0       0       0       0       0       0       0       0       0       
      +0       0       0       0
   627 ;;      Totals:         1       0       0       0       0       0       0       0       0       0       0       0       
      +0       0       0       0
   628 ;;Total ram usage:        1 bytes
   629 ;; Hardware stack levels used:    1
   630 ;; Hardware stack levels required when called:    7
   631 ;; This function calls:
   632 ;;		_brightness
   633 ;; This function is called by:
   634 ;;		_main
   635 ;; This function uses a non-reentrant model
   636 ;;
   637                           
   638                           	psect	text2
   639  000566                     __ptext2:
   640                           	opt stack 0
   641  000566                     _white:
   642                           	opt stack 23
   643                           
   644                           ;incstack = 0
   645                           ;white@v stored from wreg
   646  000566  6E1F               	movwf	white@v,c
   647                           
   648                           ;main.c: 329: brightness(1, 1, 1, v);
   649  000568  0E01               	movlw	1
   650  00056A  6E13               	movwf	brightness@grn,c
   651  00056C  0E01               	movlw	1
   652  00056E  6E14               	movwf	brightness@blu,c
   653  000570  C01F  F015         	movff	white@v,brightness@value
   654  000574  0E01               	movlw	1
   655  000576  EC48  F000         	call	_brightness
   656  00057A  0012               	return		;funcret
   657  00057C                     __end_of_white:
   658                           	opt stack 0
   659                           tblptru	equ	0xFF8
   660                           wreg	equ	0xFE8
   661                           status	equ	0xFD8
   662                           
   663 ;; *************** function _red *****************
   664 ;; Defined at:
   665 ;;		line 358 in file "main.c"
   666 ;; Parameters:    Size  Location     Type
   667 ;;  v               1    wreg     unsigned char 
   668 ;; Auto vars:     Size  Location     Type
   669 ;;  v               1   30[COMRAM] unsigned char 
   670 ;; Return value:  Size  Location     Type
   671 ;;                  1    wreg      void 
   672 ;; Registers used:
   673 ;;		wreg, status,2, status,0, cstack
   674 ;; Tracked objects:
   675 ;;		On entry : 0/0
   676 ;;		On exit  : 0/0
   677 ;;		Unchanged: 0/0
   678 ;; Data sizes:     COMRAM   BANK0   BANK1   BANK2   BANK3   BANK4   BANK5   BANK6   BANK7   BANK8   BANK9  BANK10  BANK1
      +1  BANK12  BANK13  BANK14
   679 ;;      Params:         0       0       0       0       0       0       0       0       0       0       0       0       
      +0       0       0       0
   680 ;;      Locals:         1       0       0       0       0       0       0       0       0       0       0       0       
      +0       0       0       0
   681 ;;      Temps:          0       0       0       0       0       0       0       0       0       0       0       0       
      +0       0       0       0
   682 ;;      Totals:         1       0       0       0       0       0       0       0       0       0       0       0       
      +0       0       0       0
   683 ;;Total ram usage:        1 bytes
   684 ;; Hardware stack levels used:    1
   685 ;; Hardware stack levels required when called:    7
   686 ;; This function calls:
   687 ;;		_brightness
   688 ;; This function is called by:
   689 ;;		_main
   690 ;; This function uses a non-reentrant model
   691 ;;
   692                           
   693                           	psect	text3
   694  00057C                     __ptext3:
   695                           	opt stack 0
   696  00057C                     _red:
   697                           	opt stack 23
   698                           
   699                           ;incstack = 0
   700                           ;red@v stored from wreg
   701  00057C  6E1F               	movwf	red@v,c
   702                           
   703                           ;main.c: 359: brightness(1, 0, 0, v);
   704  00057E  0E00               	movlw	0
   705  000580  6E13               	movwf	brightness@grn,c
   706  000582  0E00               	movlw	0
   707  000584  6E14               	movwf	brightness@blu,c
   708  000586  C01F  F015         	movff	red@v,brightness@value
   709  00058A  0E01               	movlw	1
   710  00058C  EC48  F000         	call	_brightness
   711  000590  0012               	return		;funcret
   712  000592                     __end_of_red:
   713                           	opt stack 0
   714                           tblptru	equ	0xFF8
   715                           wreg	equ	0xFE8
   716                           status	equ	0xFD8
   717                           
   718 ;; *************** function _off *****************
   719 ;; Defined at:
   720 ;;		line 363 in file "main.c"
   721 ;; Parameters:    Size  Location     Type
   722 ;;		None
   723 ;; Auto vars:     Size  Location     Type
   724 ;;		None
   725 ;; Return value:  Size  Location     Type
   726 ;;                  1    wreg      void 
   727 ;; Registers used:
   728 ;;		wreg, status,2, status,0, cstack
   729 ;; Tracked objects:
   730 ;;		On entry : 0/0
   731 ;;		On exit  : 0/0
   732 ;;		Unchanged: 0/0
   733 ;; Data sizes:     COMRAM   BANK0   BANK1   BANK2   BANK3   BANK4   BANK5   BANK6   BANK7   BANK8   BANK9  BANK10  BANK1
      +1  BANK12  BANK13  BANK14
   734 ;;      Params:         0       0       0       0       0       0       0       0       0       0       0       0       
      +0       0       0       0
   735 ;;      Locals:         0       0       0       0       0       0       0       0       0       0       0       0       
      +0       0       0       0
   736 ;;      Temps:          0       0       0       0       0       0       0       0       0       0       0       0       
      +0       0       0       0
   737 ;;      Totals:         0       0       0       0       0       0       0       0       0       0       0       0       
      +0       0       0       0
   738 ;;Total ram usage:        0 bytes
   739 ;; Hardware stack levels used:    1
   740 ;; Hardware stack levels required when called:    7
   741 ;; This function calls:
   742 ;;		_brightness
   743 ;; This function is called by:
   744 ;;		_main
   745 ;; This function uses a non-reentrant model
   746 ;;
   747                           
   748                           	psect	text4
   749  0005EA                     __ptext4:
   750                           	opt stack 0
   751  0005EA                     _off:
   752                           	opt stack 23
   753                           
   754                           ;main.c: 364: brightness(0, 0, 0, 0);
   755                           
   756                           ;incstack = 0
   757  0005EA  0E00               	movlw	0
   758  0005EC  6E13               	movwf	brightness@grn,c
   759  0005EE  0E00               	movlw	0
   760  0005F0  6E14               	movwf	brightness@blu,c
   761  0005F2  0E00               	movlw	0
   762  0005F4  6E15               	movwf	brightness@value,c
   763  0005F6  0E00               	movlw	0
   764  0005F8  EC48  F000         	call	_brightness
   765  0005FC  0012               	return		;funcret
   766  0005FE                     __end_of_off:
   767                           	opt stack 0
   768                           tblptru	equ	0xFF8
   769                           wreg	equ	0xFE8
   770                           status	equ	0xFD8
   771                           
   772 ;; *************** function _magenta *****************
   773 ;; Defined at:
   774 ;;		line 343 in file "main.c"
   775 ;; Parameters:    Size  Location     Type
   776 ;;  v               1    wreg     unsigned char 
   777 ;; Auto vars:     Size  Location     Type
   778 ;;  v               1   30[COMRAM] unsigned char 
   779 ;; Return value:  Size  Location     Type
   780 ;;                  1    wreg      void 
   781 ;; Registers used:
   782 ;;		wreg, status,2, status,0, cstack
   783 ;; Tracked objects:
   784 ;;		On entry : 0/0
   785 ;;		On exit  : 0/0
   786 ;;		Unchanged: 0/0
   787 ;; Data sizes:     COMRAM   BANK0   BANK1   BANK2   BANK3   BANK4   BANK5   BANK6   BANK7   BANK8   BANK9  BANK10  BANK1
      +1  BANK12  BANK13  BANK14
   788 ;;      Params:         0       0       0       0       0       0       0       0       0       0       0       0       
      +0       0       0       0
   789 ;;      Locals:         1       0       0       0       0       0       0       0       0       0       0       0       
      +0       0       0       0
   790 ;;      Temps:          0       0       0       0       0       0       0       0       0       0       0       0       
      +0       0       0       0
   791 ;;      Totals:         1       0       0       0       0       0       0       0       0       0       0       0       
      +0       0       0       0
   792 ;;Total ram usage:        1 bytes
   793 ;; Hardware stack levels used:    1
   794 ;; Hardware stack levels required when called:    7
   795 ;; This function calls:
   796 ;;		_brightness
   797 ;; This function is called by:
   798 ;;		_main
   799 ;; This function uses a non-reentrant model
   800 ;;
   801                           
   802                           	psect	text5
   803  000592                     __ptext5:
   804                           	opt stack 0
   805  000592                     _magenta:
   806                           	opt stack 23
   807                           
   808                           ;incstack = 0
   809                           ;magenta@v stored from wreg
   810  000592  6E1F               	movwf	magenta@v,c
   811                           
   812                           ;main.c: 344: brightness(1, 0, 1, v);
   813  000594  0E00               	movlw	0
   814  000596  6E13               	movwf	brightness@grn,c
   815  000598  0E01               	movlw	1
   816  00059A  6E14               	movwf	brightness@blu,c
   817  00059C  C01F  F015         	movff	magenta@v,brightness@value
   818  0005A0  0E01               	movlw	1
   819  0005A2  EC48  F000         	call	_brightness
   820  0005A6  0012               	return		;funcret
   821  0005A8                     __end_of_magenta:
   822                           	opt stack 0
   823                           tblptru	equ	0xFF8
   824                           wreg	equ	0xFE8
   825                           status	equ	0xFD8
   826                           
   827 ;; *************** function _green *****************
   828 ;; Defined at:
   829 ;;		line 348 in file "main.c"
   830 ;; Parameters:    Size  Location     Type
   831 ;;  v               1    wreg     unsigned char 
   832 ;; Auto vars:     Size  Location     Type
   833 ;;  v               1   30[COMRAM] unsigned char 
   834 ;; Return value:  Size  Location     Type
   835 ;;                  1    wreg      void 
   836 ;; Registers used:
   837 ;;		wreg, status,2, status,0, cstack
   838 ;; Tracked objects:
   839 ;;		On entry : 0/0
   840 ;;		On exit  : 0/0
   841 ;;		Unchanged: 0/0
   842 ;; Data sizes:     COMRAM   BANK0   BANK1   BANK2   BANK3   BANK4   BANK5   BANK6   BANK7   BANK8   BANK9  BANK10  BANK1
      +1  BANK12  BANK13  BANK14
   843 ;;      Params:         0       0       0       0       0       0       0       0       0       0       0       0       
      +0       0       0       0
   844 ;;      Locals:         1       0       0       0       0       0       0       0       0       0       0       0       
      +0       0       0       0
   845 ;;      Temps:          0       0       0       0       0       0       0       0       0       0       0       0       
      +0       0       0       0
   846 ;;      Totals:         1       0       0       0       0       0       0       0       0       0       0       0       
      +0       0       0       0
   847 ;;Total ram usage:        1 bytes
   848 ;; Hardware stack levels used:    1
   849 ;; Hardware stack levels required when called:    7
   850 ;; This function calls:
   851 ;;		_brightness
   852 ;; This function is called by:
   853 ;;		_main
   854 ;; This function uses a non-reentrant model
   855 ;;
   856                           
   857                           	psect	text6
   858  0005A8                     __ptext6:
   859                           	opt stack 0
   860  0005A8                     _green:
   861                           	opt stack 23
   862                           
   863                           ;incstack = 0
   864                           ;green@v stored from wreg
   865  0005A8  6E1F               	movwf	green@v,c
   866                           
   867                           ;main.c: 349: brightness(0, 1, 0, v);
   868  0005AA  0E01               	movlw	1
   869  0005AC  6E13               	movwf	brightness@grn,c
   870  0005AE  0E00               	movlw	0
   871  0005B0  6E14               	movwf	brightness@blu,c
   872  0005B2  C01F  F015         	movff	green@v,brightness@value
   873  0005B6  0E00               	movlw	0
   874  0005B8  EC48  F000         	call	_brightness
   875  0005BC  0012               	return		;funcret
   876  0005BE                     __end_of_green:
   877                           	opt stack 0
   878                           tblptru	equ	0xFF8
   879                           wreg	equ	0xFE8
   880                           status	equ	0xFD8
   881                           
   882 ;; *************** function _cyan *****************
   883 ;; Defined at:
   884 ;;		line 333 in file "main.c"
   885 ;; Parameters:    Size  Location     Type
   886 ;;  v               1    wreg     unsigned char 
   887 ;; Auto vars:     Size  Location     Type
   888 ;;  v               1   30[COMRAM] unsigned char 
   889 ;; Return value:  Size  Location     Type
   890 ;;                  1    wreg      void 
   891 ;; Registers used:
   892 ;;		wreg, status,2, status,0, cstack
   893 ;; Tracked objects:
   894 ;;		On entry : 0/0
   895 ;;		On exit  : 0/0
   896 ;;		Unchanged: 0/0
   897 ;; Data sizes:     COMRAM   BANK0   BANK1   BANK2   BANK3   BANK4   BANK5   BANK6   BANK7   BANK8   BANK9  BANK10  BANK1
      +1  BANK12  BANK13  BANK14
   898 ;;      Params:         0       0       0       0       0       0       0       0       0       0       0       0       
      +0       0       0       0
   899 ;;      Locals:         1       0       0       0       0       0       0       0       0       0       0       0       
      +0       0       0       0
   900 ;;      Temps:          0       0       0       0       0       0       0       0       0       0       0       0       
      +0       0       0       0
   901 ;;      Totals:         1       0       0       0       0       0       0       0       0       0       0       0       
      +0       0       0       0
   902 ;;Total ram usage:        1 bytes
   903 ;; Hardware stack levels used:    1
   904 ;; Hardware stack levels required when called:    7
   905 ;; This function calls:
   906 ;;		_brightness
   907 ;; This function is called by:
   908 ;;		_main
   909 ;; This function uses a non-reentrant model
   910 ;;
   911                           
   912                           	psect	text7
   913  0005BE                     __ptext7:
   914                           	opt stack 0
   915  0005BE                     _cyan:
   916                           	opt stack 23
   917                           
   918                           ;incstack = 0
   919                           ;cyan@v stored from wreg
   920  0005BE  6E1F               	movwf	cyan@v,c
   921                           
   922                           ;main.c: 334: brightness(0, 1, 1, v);
   923  0005C0  0E01               	movlw	1
   924  0005C2  6E13               	movwf	brightness@grn,c
   925  0005C4  0E01               	movlw	1
   926  0005C6  6E14               	movwf	brightness@blu,c
   927  0005C8  C01F  F015         	movff	cyan@v,brightness@value
   928  0005CC  0E00               	movlw	0
   929  0005CE  EC48  F000         	call	_brightness
   930  0005D2  0012               	return		;funcret
   931  0005D4                     __end_of_cyan:
   932                           	opt stack 0
   933                           tblptru	equ	0xFF8
   934                           wreg	equ	0xFE8
   935                           status	equ	0xFD8
   936                           
   937 ;; *************** function _blue *****************
   938 ;; Defined at:
   939 ;;		line 353 in file "main.c"
   940 ;; Parameters:    Size  Location     Type
   941 ;;  v               1    wreg     unsigned char 
   942 ;; Auto vars:     Size  Location     Type
   943 ;;  v               1   30[COMRAM] unsigned char 
   944 ;; Return value:  Size  Location     Type
   945 ;;                  1    wreg      void 
   946 ;; Registers used:
   947 ;;		wreg, status,2, status,0, cstack
   948 ;; Tracked objects:
   949 ;;		On entry : 0/0
   950 ;;		On exit  : 0/0
   951 ;;		Unchanged: 0/0
   952 ;; Data sizes:     COMRAM   BANK0   BANK1   BANK2   BANK3   BANK4   BANK5   BANK6   BANK7   BANK8   BANK9  BANK10  BANK1
      +1  BANK12  BANK13  BANK14
   953 ;;      Params:         0       0       0       0       0       0       0       0       0       0       0       0       
      +0       0       0       0
   954 ;;      Locals:         1       0       0       0       0       0       0       0       0       0       0       0       
      +0       0       0       0
   955 ;;      Temps:          0       0       0       0       0       0       0       0       0       0       0       0       
      +0       0       0       0
   956 ;;      Totals:         1       0       0       0       0       0       0       0       0       0       0       0       
      +0       0       0       0
   957 ;;Total ram usage:        1 bytes
   958 ;; Hardware stack levels used:    1
   959 ;; Hardware stack levels required when called:    7
   960 ;; This function calls:
   961 ;;		_brightness
   962 ;; This function is called by:
   963 ;;		_main
   964 ;; This function uses a non-reentrant model
   965 ;;
   966                           
   967                           	psect	text8
   968  0005D4                     __ptext8:
   969                           	opt stack 0
   970  0005D4                     _blue:
   971                           	opt stack 23
   972                           
   973                           ;incstack = 0
   974                           ;blue@v stored from wreg
   975  0005D4  6E1F               	movwf	blue@v,c
   976                           
   977                           ;main.c: 354: brightness(0, 0, 1, v);
   978  0005D6  0E00               	movlw	0
   979  0005D8  6E13               	movwf	brightness@grn,c
   980  0005DA  0E01               	movlw	1
   981  0005DC  6E14               	movwf	brightness@blu,c
   982  0005DE  C01F  F015         	movff	blue@v,brightness@value
   983  0005E2  0E00               	movlw	0
   984  0005E4  EC48  F000         	call	_brightness
   985  0005E8  0012               	return		;funcret
   986  0005EA                     __end_of_blue:
   987                           	opt stack 0
   988                           tblptru	equ	0xFF8
   989                           wreg	equ	0xFE8
   990                           status	equ	0xFD8
   991                           
   992 ;; *************** function _brightness *****************
   993 ;; Defined at:
   994 ;;		line 102 in file "main.c"
   995 ;; Parameters:    Size  Location     Type
   996 ;;  red             1    wreg     unsigned char 
   997 ;;  grn             1   18[COMRAM] unsigned char 
   998 ;;  blu             1   19[COMRAM] unsigned char 
   999 ;;  value           1   20[COMRAM] unsigned char 
  1000 ;; Auto vars:     Size  Location     Type
  1001 ;;  red             1   21[COMRAM] unsigned char 
  1002 ;;  bit0            1   29[COMRAM] unsigned char 
  1003 ;;  bit1            1   28[COMRAM] unsigned char 
  1004 ;;  bit2            1   27[COMRAM] unsigned char 
  1005 ;;  bit3            1   26[COMRAM] unsigned char 
  1006 ;;  bit4            1   25[COMRAM] unsigned char 
  1007 ;;  bit5            1   24[COMRAM] unsigned char 
  1008 ;;  bit6            1   23[COMRAM] unsigned char 
  1009 ;;  bit7            1   22[COMRAM] unsigned char 
  1010 ;; Return value:  Size  Location     Type
  1011 ;;                  1    wreg      void 
  1012 ;; Registers used:
  1013 ;;		wreg, status,2, status,0, cstack
  1014 ;; Tracked objects:
  1015 ;;		On entry : 0/0
  1016 ;;		On exit  : 0/0
  1017 ;;		Unchanged: 0/0
  1018 ;; Data sizes:     COMRAM   BANK0   BANK1   BANK2   BANK3   BANK4   BANK5   BANK6   BANK7   BANK8   BANK9  BANK10  BANK1
      +1  BANK12  BANK13  BANK14
  1019 ;;      Params:         3       0       0       0       0       0       0       0       0       0       0       0       
      +0       0       0       0
  1020 ;;      Locals:         9       0       0       0       0       0       0       0       0       0       0       0       
      +0       0       0       0
  1021 ;;      Temps:          0       0       0       0       0       0       0       0       0       0       0       0       
      +0       0       0       0
  1022 ;;      Totals:        12       0       0       0       0       0       0       0       0       0       0       0       
      +0       0       0       0
  1023 ;;Total ram usage:       12 bytes
  1024 ;; Hardware stack levels used:    1
  1025 ;; Hardware stack levels required when called:    6
  1026 ;; This function calls:
  1027 ;;		_allBitsOff
  1028 ;;		_lastBitOff
  1029 ;;		_lastBitOn
  1030 ;;		_oneBitOff
  1031 ;;		_oneBitOn
  1032 ;; This function is called by:
  1033 ;;		_white
  1034 ;;		_cyan
  1035 ;;		_yellow
  1036 ;;		_magenta
  1037 ;;		_green
  1038 ;;		_blue
  1039 ;;		_red
  1040 ;;		_off
  1041 ;; This function uses a non-reentrant model
  1042 ;;
  1043                           
  1044                           	psect	text9
  1045  000090                     __ptext9:
  1046                           	opt stack 0
  1047  000090                     _brightness:
  1048                           	opt stack 23
  1049                           
  1050                           ;incstack = 0
  1051                           ;brightness@red stored from wreg
  1052  000090  6E16               	movwf	brightness@red,c
  1053                           
  1054                           ;main.c: 103: unsigned char bit7 = 0;
  1055  000092  0E00               	movlw	0
  1056  000094  6E17               	movwf	brightness@bit7,c
  1057                           
  1058                           ;main.c: 104: unsigned char bit6 = 1;
  1059  000096  0E01               	movlw	1
  1060  000098  6E18               	movwf	brightness@bit6,c
  1061                           
  1062                           ;main.c: 105: unsigned char bit5 = 1;
  1063  00009A  0E01               	movlw	1
  1064  00009C  6E19               	movwf	brightness@bit5,c
  1065                           
  1066                           ;main.c: 106: unsigned char bit4 = 1;
  1067  00009E  0E01               	movlw	1
  1068  0000A0  6E1A               	movwf	brightness@bit4,c
  1069                           
  1070                           ;main.c: 107: unsigned char bit3 = 1;
  1071  0000A2  0E01               	movlw	1
  1072  0000A4  6E1B               	movwf	brightness@bit3,c
  1073                           
  1074                           ;main.c: 108: unsigned char bit2 = 1;
  1075  0000A6  0E01               	movlw	1
  1076  0000A8  6E1C               	movwf	brightness@bit2,c
  1077                           
  1078                           ;main.c: 109: unsigned char bit1 = 1;
  1079  0000AA  0E01               	movlw	1
  1080  0000AC  6E1D               	movwf	brightness@bit1,c
  1081                           
  1082                           ;main.c: 110: unsigned char bit0 = 1;
  1083  0000AE  0E01               	movlw	1
  1084  0000B0  6E1E               	movwf	brightness@bit0,c
  1085                           
  1086                           ;main.c: 112: if (red){
  1087  0000B2  5016               	movf	brightness@red,w,c
  1088  0000B4  B4D8               	btfsc	status,2,c
  1089  0000B6  D041               	goto	l1941
  1090                           
  1091                           ;main.c: 114: if (bit7 == 1){
  1092  0000B8  0417               	decf	brightness@bit7,w,c
  1093  0000BA  A4D8               	btfss	status,2,c
  1094  0000BC  D003               	goto	l1897
  1095                           
  1096                           ;main.c: 115: oneBitOn();
  1097  0000BE  ECFF  F002         	call	_oneBitOn	;wreg free
  1098                           
  1099                           ;main.c: 116: }
  1100  0000C2  D002               	goto	l1899
  1101  0000C4                     l1897:
  1102                           
  1103                           ;main.c: 117: else{
  1104                           ;main.c: 118: oneBitOff();
  1105  0000C4  EC1B  F003         	call	_oneBitOff	;wreg free
  1106  0000C8                     l1899:
  1107                           
  1108                           ;main.c: 119: }
  1109                           ;main.c: 122: if (bit6 == 1){
  1110  0000C8  0418               	decf	brightness@bit6,w,c
  1111  0000CA  A4D8               	btfss	status,2,c
  1112  0000CC  D003               	goto	l1903
  1113                           
  1114                           ;main.c: 123: oneBitOn();
  1115  0000CE  ECFF  F002         	call	_oneBitOn	;wreg free
  1116                           
  1117                           ;main.c: 124: }
  1118  0000D2  D002               	goto	l1905
  1119  0000D4                     l1903:
  1120                           
  1121                           ;main.c: 125: else{
  1122                           ;main.c: 126: oneBitOff();
  1123  0000D4  EC1B  F003         	call	_oneBitOff	;wreg free
  1124  0000D8                     l1905:
  1125                           
  1126                           ;main.c: 127: }
  1127                           ;main.c: 130: if (bit5 == 1){
  1128  0000D8  0419               	decf	brightness@bit5,w,c
  1129  0000DA  A4D8               	btfss	status,2,c
  1130  0000DC  D003               	goto	l1909
  1131                           
  1132                           ;main.c: 131: oneBitOn();
  1133  0000DE  ECFF  F002         	call	_oneBitOn	;wreg free
  1134                           
  1135                           ;main.c: 132: }
  1136  0000E2  D002               	goto	l1911
  1137  0000E4                     l1909:
  1138                           
  1139                           ;main.c: 133: else{
  1140                           ;main.c: 134: oneBitOff();
  1141  0000E4  EC1B  F003         	call	_oneBitOff	;wreg free
  1142  0000E8                     l1911:
  1143                           
  1144                           ;main.c: 135: }
  1145                           ;main.c: 138: if (bit4 == 1){
  1146  0000E8  041A               	decf	brightness@bit4,w,c
  1147  0000EA  A4D8               	btfss	status,2,c
  1148  0000EC  D003               	goto	l1915
  1149                           
  1150                           ;main.c: 139: oneBitOn();
  1151  0000EE  ECFF  F002         	call	_oneBitOn	;wreg free
  1152                           
  1153                           ;main.c: 140: }
  1154  0000F2  D002               	goto	l1917
  1155  0000F4                     l1915:
  1156                           
  1157                           ;main.c: 141: else{
  1158                           ;main.c: 142: oneBitOff();
  1159  0000F4  EC1B  F003         	call	_oneBitOff	;wreg free
  1160  0000F8                     l1917:
  1161                           
  1162                           ;main.c: 143: }
  1163                           ;main.c: 146: if (bit3 == 1){
  1164  0000F8  041B               	decf	brightness@bit3,w,c
  1165  0000FA  A4D8               	btfss	status,2,c
  1166  0000FC  D003               	goto	l1921
  1167                           
  1168                           ;main.c: 147: oneBitOn();
  1169  0000FE  ECFF  F002         	call	_oneBitOn	;wreg free
  1170                           
  1171                           ;main.c: 148: }
  1172  000102  D002               	goto	l1923
  1173  000104                     l1921:
  1174                           
  1175                           ;main.c: 149: else{
  1176                           ;main.c: 150: oneBitOff();
  1177  000104  EC1B  F003         	call	_oneBitOff	;wreg free
  1178  000108                     l1923:
  1179                           
  1180                           ;main.c: 151: }
  1181                           ;main.c: 154: if (bit2 == 1){
  1182  000108  041C               	decf	brightness@bit2,w,c
  1183  00010A  A4D8               	btfss	status,2,c
  1184  00010C  D003               	goto	l1927
  1185                           
  1186                           ;main.c: 155: oneBitOn();
  1187  00010E  ECFF  F002         	call	_oneBitOn	;wreg free
  1188                           
  1189                           ;main.c: 156: }
  1190  000112  D002               	goto	l1929
  1191  000114                     l1927:
  1192                           
  1193                           ;main.c: 157: else{
  1194                           ;main.c: 158: oneBitOff();
  1195  000114  EC1B  F003         	call	_oneBitOff	;wreg free
  1196  000118                     l1929:
  1197                           
  1198                           ;main.c: 159: }
  1199                           ;main.c: 162: if (bit1 == 1){
  1200  000118  041D               	decf	brightness@bit1,w,c
  1201  00011A  A4D8               	btfss	status,2,c
  1202  00011C  D003               	goto	l1933
  1203                           
  1204                           ;main.c: 163: oneBitOn();
  1205  00011E  ECFF  F002         	call	_oneBitOn	;wreg free
  1206                           
  1207                           ;main.c: 164: }
  1208  000122  D002               	goto	l1935
  1209  000124                     l1933:
  1210                           
  1211                           ;main.c: 165: else{
  1212                           ;main.c: 166: oneBitOff();
  1213  000124  EC1B  F003         	call	_oneBitOff	;wreg free
  1214  000128                     l1935:
  1215                           
  1216                           ;main.c: 167: }
  1217                           ;main.c: 170: if (bit0 == 1){
  1218  000128  041E               	decf	brightness@bit0,w,c
  1219  00012A  A4D8               	btfss	status,2,c
  1220  00012C  D003               	goto	l1939
  1221                           
  1222                           ;main.c: 171: oneBitOn();
  1223  00012E  ECFF  F002         	call	_oneBitOn	;wreg free
  1224                           
  1225                           ;main.c: 172: }
  1226  000132  D005               	goto	l1943
  1227  000134                     l1939:
  1228                           
  1229                           ;main.c: 173: else{
  1230                           ;main.c: 174: oneBitOff();
  1231  000134  EC1B  F003         	call	_oneBitOff	;wreg free
  1232                           
  1233                           ;main.c: 175: }
  1234                           ;main.c: 177: }
  1235  000138  D002               	goto	l1943
  1236  00013A                     l1941:
  1237                           
  1238                           ;main.c: 178: else{
  1239                           ;main.c: 180: allBitsOff();
  1240  00013A  EC7B  F002         	call	_allBitsOff	;wreg free
  1241  00013E                     l1943:
  1242                           
  1243                           ;main.c: 181: }
  1244                           ;main.c: 184: if (grn){
  1245  00013E  5013               	movf	brightness@grn,w,c
  1246  000140  B4D8               	btfsc	status,2,c
  1247  000142  D041               	goto	l1993
  1248                           
  1249                           ;main.c: 186: if (bit7 == 1){
  1250  000144  0417               	decf	brightness@bit7,w,c
  1251  000146  A4D8               	btfss	status,2,c
  1252  000148  D003               	goto	l1949
  1253                           
  1254                           ;main.c: 187: oneBitOn();
  1255  00014A  ECFF  F002         	call	_oneBitOn	;wreg free
  1256                           
  1257                           ;main.c: 188: }
  1258  00014E  D002               	goto	l1951
  1259  000150                     l1949:
  1260                           
  1261                           ;main.c: 189: else{
  1262                           ;main.c: 190: oneBitOff();
  1263  000150  EC1B  F003         	call	_oneBitOff	;wreg free
  1264  000154                     l1951:
  1265                           
  1266                           ;main.c: 191: }
  1267                           ;main.c: 194: if (bit6 == 1){
  1268  000154  0418               	decf	brightness@bit6,w,c
  1269  000156  A4D8               	btfss	status,2,c
  1270  000158  D003               	goto	l1955
  1271                           
  1272                           ;main.c: 195: oneBitOn();
  1273  00015A  ECFF  F002         	call	_oneBitOn	;wreg free
  1274                           
  1275                           ;main.c: 196: }
  1276  00015E  D002               	goto	l1957
  1277  000160                     l1955:
  1278                           
  1279                           ;main.c: 197: else{
  1280                           ;main.c: 198: oneBitOff();
  1281  000160  EC1B  F003         	call	_oneBitOff	;wreg free
  1282  000164                     l1957:
  1283                           
  1284                           ;main.c: 199: }
  1285                           ;main.c: 202: if (bit5 == 1){
  1286  000164  0419               	decf	brightness@bit5,w,c
  1287  000166  A4D8               	btfss	status,2,c
  1288  000168  D003               	goto	l1961
  1289                           
  1290                           ;main.c: 203: oneBitOn();
  1291  00016A  ECFF  F002         	call	_oneBitOn	;wreg free
  1292                           
  1293                           ;main.c: 204: }
  1294  00016E  D002               	goto	l1963
  1295  000170                     l1961:
  1296                           
  1297                           ;main.c: 205: else{
  1298                           ;main.c: 206: oneBitOff();
  1299  000170  EC1B  F003         	call	_oneBitOff	;wreg free
  1300  000174                     l1963:
  1301                           
  1302                           ;main.c: 207: }
  1303                           ;main.c: 210: if (bit4 == 1){
  1304  000174  041A               	decf	brightness@bit4,w,c
  1305  000176  A4D8               	btfss	status,2,c
  1306  000178  D003               	goto	l1967
  1307                           
  1308                           ;main.c: 211: oneBitOn();
  1309  00017A  ECFF  F002         	call	_oneBitOn	;wreg free
  1310                           
  1311                           ;main.c: 212: }
  1312  00017E  D002               	goto	l1969
  1313  000180                     l1967:
  1314                           
  1315                           ;main.c: 213: else{
  1316                           ;main.c: 214: oneBitOff();
  1317  000180  EC1B  F003         	call	_oneBitOff	;wreg free
  1318  000184                     l1969:
  1319                           
  1320                           ;main.c: 215: }
  1321                           ;main.c: 218: if (bit3 == 1){
  1322  000184  041B               	decf	brightness@bit3,w,c
  1323  000186  A4D8               	btfss	status,2,c
  1324  000188  D003               	goto	l1973
  1325                           
  1326                           ;main.c: 219: oneBitOn();
  1327  00018A  ECFF  F002         	call	_oneBitOn	;wreg free
  1328                           
  1329                           ;main.c: 220: }
  1330  00018E  D002               	goto	l1975
  1331  000190                     l1973:
  1332                           
  1333                           ;main.c: 221: else{
  1334                           ;main.c: 222: oneBitOff();
  1335  000190  EC1B  F003         	call	_oneBitOff	;wreg free
  1336  000194                     l1975:
  1337                           
  1338                           ;main.c: 223: }
  1339                           ;main.c: 226: if (bit2 == 1){
  1340  000194  041C               	decf	brightness@bit2,w,c
  1341  000196  A4D8               	btfss	status,2,c
  1342  000198  D003               	goto	l1979
  1343                           
  1344                           ;main.c: 227: oneBitOn();
  1345  00019A  ECFF  F002         	call	_oneBitOn	;wreg free
  1346                           
  1347                           ;main.c: 228: }
  1348  00019E  D002               	goto	l1981
  1349  0001A0                     l1979:
  1350                           
  1351                           ;main.c: 229: else{
  1352                           ;main.c: 230: oneBitOff();
  1353  0001A0  EC1B  F003         	call	_oneBitOff	;wreg free
  1354  0001A4                     l1981:
  1355                           
  1356                           ;main.c: 231: }
  1357                           ;main.c: 234: if (bit1 == 1){
  1358  0001A4  041D               	decf	brightness@bit1,w,c
  1359  0001A6  A4D8               	btfss	status,2,c
  1360  0001A8  D003               	goto	l1985
  1361                           
  1362                           ;main.c: 235: oneBitOn();
  1363  0001AA  ECFF  F002         	call	_oneBitOn	;wreg free
  1364                           
  1365                           ;main.c: 236: }
  1366  0001AE  D002               	goto	l1987
  1367  0001B0                     l1985:
  1368                           
  1369                           ;main.c: 237: else{
  1370                           ;main.c: 238: oneBitOff();
  1371  0001B0  EC1B  F003         	call	_oneBitOff	;wreg free
  1372  0001B4                     l1987:
  1373                           
  1374                           ;main.c: 239: }
  1375                           ;main.c: 242: if (bit0 == 1){
  1376  0001B4  041E               	decf	brightness@bit0,w,c
  1377  0001B6  A4D8               	btfss	status,2,c
  1378  0001B8  D003               	goto	l1991
  1379                           
  1380                           ;main.c: 243: oneBitOn();
  1381  0001BA  ECFF  F002         	call	_oneBitOn	;wreg free
  1382                           
  1383                           ;main.c: 244: }
  1384  0001BE  D005               	goto	l1995
  1385  0001C0                     l1991:
  1386                           
  1387                           ;main.c: 245: else{
  1388                           ;main.c: 246: oneBitOff();
  1389  0001C0  EC1B  F003         	call	_oneBitOff	;wreg free
  1390                           
  1391                           ;main.c: 247: }
  1392                           ;main.c: 249: }
  1393  0001C4  D002               	goto	l1995
  1394  0001C6                     l1993:
  1395                           
  1396                           ;main.c: 250: else{
  1397                           ;main.c: 252: allBitsOff();
  1398  0001C6  EC7B  F002         	call	_allBitsOff	;wreg free
  1399  0001CA                     l1995:
  1400                           
  1401                           ;main.c: 253: }
  1402                           ;main.c: 256: if (blu){
  1403  0001CA  5014               	movf	brightness@blu,w,c
  1404  0001CC  B4D8               	btfsc	status,2,c
  1405  0001CE  D041               	goto	l2045
  1406                           
  1407                           ;main.c: 258: if (bit7 == 1){
  1408  0001D0  0417               	decf	brightness@bit7,w,c
  1409  0001D2  A4D8               	btfss	status,2,c
  1410  0001D4  D003               	goto	l2001
  1411                           
  1412                           ;main.c: 259: oneBitOn();
  1413  0001D6  ECFF  F002         	call	_oneBitOn	;wreg free
  1414                           
  1415                           ;main.c: 260: }
  1416  0001DA  D002               	goto	l2003
  1417  0001DC                     l2001:
  1418                           
  1419                           ;main.c: 261: else{
  1420                           ;main.c: 262: oneBitOff();
  1421  0001DC  EC1B  F003         	call	_oneBitOff	;wreg free
  1422  0001E0                     l2003:
  1423                           
  1424                           ;main.c: 263: }
  1425                           ;main.c: 266: if (bit6 == 1){
  1426  0001E0  0418               	decf	brightness@bit6,w,c
  1427  0001E2  A4D8               	btfss	status,2,c
  1428  0001E4  D003               	goto	l2007
  1429                           
  1430                           ;main.c: 267: oneBitOn();
  1431  0001E6  ECFF  F002         	call	_oneBitOn	;wreg free
  1432                           
  1433                           ;main.c: 268: }
  1434  0001EA  D002               	goto	l2009
  1435  0001EC                     l2007:
  1436                           
  1437                           ;main.c: 269: else{
  1438                           ;main.c: 270: oneBitOff();
  1439  0001EC  EC1B  F003         	call	_oneBitOff	;wreg free
  1440  0001F0                     l2009:
  1441                           
  1442                           ;main.c: 271: }
  1443                           ;main.c: 274: if (bit5 == 1){
  1444  0001F0  0419               	decf	brightness@bit5,w,c
  1445  0001F2  A4D8               	btfss	status,2,c
  1446  0001F4  D003               	goto	l2013
  1447                           
  1448                           ;main.c: 275: oneBitOn();
  1449  0001F6  ECFF  F002         	call	_oneBitOn	;wreg free
  1450                           
  1451                           ;main.c: 276: }
  1452  0001FA  D002               	goto	l2015
  1453  0001FC                     l2013:
  1454                           
  1455                           ;main.c: 277: else{
  1456                           ;main.c: 278: oneBitOff();
  1457  0001FC  EC1B  F003         	call	_oneBitOff	;wreg free
  1458  000200                     l2015:
  1459                           
  1460                           ;main.c: 279: }
  1461                           ;main.c: 282: if (bit4 == 1){
  1462  000200  041A               	decf	brightness@bit4,w,c
  1463  000202  A4D8               	btfss	status,2,c
  1464  000204  D003               	goto	l2019
  1465                           
  1466                           ;main.c: 283: oneBitOn();
  1467  000206  ECFF  F002         	call	_oneBitOn	;wreg free
  1468                           
  1469                           ;main.c: 284: }
  1470  00020A  D002               	goto	l2021
  1471  00020C                     l2019:
  1472                           
  1473                           ;main.c: 285: else{
  1474                           ;main.c: 286: oneBitOff();
  1475  00020C  EC1B  F003         	call	_oneBitOff	;wreg free
  1476  000210                     l2021:
  1477                           
  1478                           ;main.c: 287: }
  1479                           ;main.c: 290: if (bit3 == 1){
  1480  000210  041B               	decf	brightness@bit3,w,c
  1481  000212  A4D8               	btfss	status,2,c
  1482  000214  D003               	goto	l2025
  1483                           
  1484                           ;main.c: 291: oneBitOn();
  1485  000216  ECFF  F002         	call	_oneBitOn	;wreg free
  1486                           
  1487                           ;main.c: 292: }
  1488  00021A  D002               	goto	l2027
  1489  00021C                     l2025:
  1490                           
  1491                           ;main.c: 293: else{
  1492                           ;main.c: 294: oneBitOff();
  1493  00021C  EC1B  F003         	call	_oneBitOff	;wreg free
  1494  000220                     l2027:
  1495                           
  1496                           ;main.c: 295: }
  1497                           ;main.c: 298: if (bit2 == 1){
  1498  000220  041C               	decf	brightness@bit2,w,c
  1499  000222  A4D8               	btfss	status,2,c
  1500  000224  D003               	goto	l2031
  1501                           
  1502                           ;main.c: 299: oneBitOn();
  1503  000226  ECFF  F002         	call	_oneBitOn	;wreg free
  1504                           
  1505                           ;main.c: 300: }
  1506  00022A  D002               	goto	l2033
  1507  00022C                     l2031:
  1508                           
  1509                           ;main.c: 301: else{
  1510                           ;main.c: 302: oneBitOff();
  1511  00022C  EC1B  F003         	call	_oneBitOff	;wreg free
  1512  000230                     l2033:
  1513                           
  1514                           ;main.c: 303: }
  1515                           ;main.c: 306: if (bit1 == 1){
  1516  000230  041D               	decf	brightness@bit1,w,c
  1517  000232  A4D8               	btfss	status,2,c
  1518  000234  D003               	goto	l2037
  1519                           
  1520                           ;main.c: 307: oneBitOn();
  1521  000236  ECFF  F002         	call	_oneBitOn	;wreg free
  1522                           
  1523                           ;main.c: 308: }
  1524  00023A  D002               	goto	l2039
  1525  00023C                     l2037:
  1526                           
  1527                           ;main.c: 309: else{
  1528                           ;main.c: 310: oneBitOff();
  1529  00023C  EC1B  F003         	call	_oneBitOff	;wreg free
  1530  000240                     l2039:
  1531                           
  1532                           ;main.c: 311: }
  1533                           ;main.c: 314: if (bit0 == 1){
  1534  000240  041E               	decf	brightness@bit0,w,c
  1535  000242  A4D8               	btfss	status,2,c
  1536  000244  D003               	goto	l2043
  1537                           
  1538                           ;main.c: 315: lastBitOn();
  1539  000246  EC12  F003         	call	_lastBitOn	;wreg free
  1540                           
  1541                           ;main.c: 316: }
  1542  00024A  0012               	return	
  1543  00024C                     l2043:
  1544                           
  1545                           ;main.c: 317: else{
  1546                           ;main.c: 318: lastBitOff();
  1547  00024C  EC2D  F003         	call	_lastBitOff	;wreg free
  1548                           
  1549                           ;main.c: 319: }
  1550                           ;main.c: 321: }
  1551  000250  0012               	return	
  1552  000252                     l2045:
  1553                           
  1554                           ;main.c: 322: else{
  1555                           ;main.c: 324: allBitsOff();
  1556  000252  EC7B  F002         	call	_allBitsOff	;wreg free
  1557  000256  0012               	return	
  1558  000258                     __end_of_brightness:
  1559                           	opt stack 0
  1560                           tblptru	equ	0xFF8
  1561                           wreg	equ	0xFE8
  1562                           status	equ	0xFD8
  1563                           
  1564 ;; *************** function _lastBitOn *****************
  1565 ;; Defined at:
  1566 ;;		line 459 in file "main.c"
  1567 ;; Parameters:    Size  Location     Type
  1568 ;;		None
  1569 ;; Auto vars:     Size  Location     Type
  1570 ;;		None
  1571 ;; Return value:  Size  Location     Type
  1572 ;;                  1    wreg      void 
  1573 ;; Registers used:
  1574 ;;		wreg
  1575 ;; Tracked objects:
  1576 ;;		On entry : 0/0
  1577 ;;		On exit  : 0/0
  1578 ;;		Unchanged: 0/0
  1579 ;; Data sizes:     COMRAM   BANK0   BANK1   BANK2   BANK3   BANK4   BANK5   BANK6   BANK7   BANK8   BANK9  BANK10  BANK1
      +1  BANK12  BANK13  BANK14
  1580 ;;      Params:         0       0       0       0       0       0       0       0       0       0       0       0       
      +0       0       0       0
  1581 ;;      Locals:         0       0       0       0       0       0       0       0       0       0       0       0       
      +0       0       0       0
  1582 ;;      Temps:          0       0       0       0       0       0       0       0       0       0       0       0       
      +0       0       0       0
  1583 ;;      Totals:         0       0       0       0       0       0       0       0       0       0       0       0       
      +0       0       0       0
  1584 ;;Total ram usage:        0 bytes
  1585 ;; Hardware stack levels used:    1
  1586 ;; Hardware stack levels required when called:    4
  1587 ;; This function calls:
  1588 ;;		Nothing
  1589 ;; This function is called by:
  1590 ;;		_brightness
  1591 ;; This function uses a non-reentrant model
  1592 ;;
  1593                           
  1594                           	psect	text10
  1595  000624                     __ptext10:
  1596                           	opt stack 0
  1597  000624                     _lastBitOn:
  1598                           	opt stack 24
  1599                           
  1600                           ;main.c: 461: PORTCbits.RC0 = 1;
  1601                           
  1602                           ;incstack = 0
  1603  000624  808F               	bsf	3983,0,c	;volatile
  1604                           
  1605                           ;main.c: 462: _delay((unsigned long)((0.7)*(64000000/4000000.0)));
  1606  000626  0E03               	movlw	3
  1607  000628                     u1047:
  1608  000628  2EE8               	decfsz	wreg,f,c
  1609  00062A  D7FE               	bra	u1047
  1610  00062C  D000               	nop2	
  1611                           
  1612                           ;main.c: 463: PORTCbits.RC0 = 0;
  1613  00062E  908F               	bcf	3983,0,c	;volatile
  1614                           
  1615                           ;main.c: 464: _delay((unsigned long)((0.3)*(64000000/4000000.0)));
  1616  000630  D000               	nop2		;2 cycle nop
  1617  000632  D000               	nop2		;2 cycle nop
  1618  000634  0012               	return		;funcret
  1619  000636                     __end_of_lastBitOn:
  1620                           	opt stack 0
  1621                           tblptru	equ	0xFF8
  1622                           wreg	equ	0xFE8
  1623                           status	equ	0xFD8
  1624                           
  1625 ;; *************** function _lastBitOff *****************
  1626 ;; Defined at:
  1627 ;;		line 468 in file "main.c"
  1628 ;; Parameters:    Size  Location     Type
  1629 ;;		None
  1630 ;; Auto vars:     Size  Location     Type
  1631 ;;		None
  1632 ;; Return value:  Size  Location     Type
  1633 ;;                  1    wreg      void 
  1634 ;; Registers used:
  1635 ;;		None
  1636 ;; Tracked objects:
  1637 ;;		On entry : 0/0
  1638 ;;		On exit  : 0/0
  1639 ;;		Unchanged: 0/0
  1640 ;; Data sizes:     COMRAM   BANK0   BANK1   BANK2   BANK3   BANK4   BANK5   BANK6   BANK7   BANK8   BANK9  BANK10  BANK1
      +1  BANK12  BANK13  BANK14
  1641 ;;      Params:         0       0       0       0       0       0       0       0       0       0       0       0       
      +0       0       0       0
  1642 ;;      Locals:         0       0       0       0       0       0       0       0       0       0       0       0       
      +0       0       0       0
  1643 ;;      Temps:          0       0       0       0       0       0       0       0       0       0       0       0       
      +0       0       0       0
  1644 ;;      Totals:         0       0       0       0       0       0       0       0       0       0       0       0       
      +0       0       0       0
  1645 ;;Total ram usage:        0 bytes
  1646 ;; Hardware stack levels used:    1
  1647 ;; Hardware stack levels required when called:    4
  1648 ;; This function calls:
  1649 ;;		Nothing
  1650 ;; This function is called by:
  1651 ;;		_brightness
  1652 ;; This function uses a non-reentrant model
  1653 ;;
  1654                           
  1655                           	psect	text11
  1656  00065A                     __ptext11:
  1657                           	opt stack 0
  1658  00065A                     _lastBitOff:
  1659                           	opt stack 24
  1660                           
  1661                           ;main.c: 470: PORTCbits.RC0 = 1;
  1662                           
  1663                           ;incstack = 0
  1664  00065A  808F               	bsf	3983,0,c	;volatile
  1665                           
  1666                           ;main.c: 471: _delay((unsigned long)((0.35)*(64000000/4000000.0)));
  1667  00065C  D000               	nop2		;2 cycle nop
  1668  00065E  D000               	nop2		;2 cycle nop
  1669  000660  F000               	nop	
  1670                           
  1671                           ;main.c: 472: PORTCbits.RC0 = 0;
  1672  000662  908F               	bcf	3983,0,c	;volatile
  1673                           
  1674                           ;main.c: 473: _delay((unsigned long)((0.3)*(64000000/4000000.0)));
  1675  000664  D000               	nop2		;2 cycle nop
  1676  000666  D000               	nop2		;2 cycle nop
  1677  000668  0012               	return		;funcret
  1678  00066A                     __end_of_lastBitOff:
  1679                           	opt stack 0
  1680                           tblptru	equ	0xFF8
  1681                           wreg	equ	0xFE8
  1682                           status	equ	0xFD8
  1683                           
  1684 ;; *************** function _allBitsOff *****************
  1685 ;; Defined at:
  1686 ;;		line 368 in file "main.c"
  1687 ;; Parameters:    Size  Location     Type
  1688 ;;		None
  1689 ;; Auto vars:     Size  Location     Type
  1690 ;;		None
  1691 ;; Return value:  Size  Location     Type
  1692 ;;                  1    wreg      void 
  1693 ;; Registers used:
  1694 ;;		wreg, cstack
  1695 ;; Tracked objects:
  1696 ;;		On entry : 0/0
  1697 ;;		On exit  : 0/0
  1698 ;;		Unchanged: 0/0
  1699 ;; Data sizes:     COMRAM   BANK0   BANK1   BANK2   BANK3   BANK4   BANK5   BANK6   BANK7   BANK8   BANK9  BANK10  BANK1
      +1  BANK12  BANK13  BANK14
  1700 ;;      Params:         0       0       0       0       0       0       0       0       0       0       0       0       
      +0       0       0       0
  1701 ;;      Locals:         0       0       0       0       0       0       0       0       0       0       0       0       
      +0       0       0       0
  1702 ;;      Temps:          0       0       0       0       0       0       0       0       0       0       0       0       
      +0       0       0       0
  1703 ;;      Totals:         0       0       0       0       0       0       0       0       0       0       0       0       
      +0       0       0       0
  1704 ;;Total ram usage:        0 bytes
  1705 ;; Hardware stack levels used:    1
  1706 ;; Hardware stack levels required when called:    5
  1707 ;; This function calls:
  1708 ;;		_oneBitOff
  1709 ;;		_oneBitOn
  1710 ;; This function is called by:
  1711 ;;		_brightness
  1712 ;; This function uses a non-reentrant model
  1713 ;;
  1714                           
  1715                           	psect	text12
  1716  0004F6                     __ptext12:
  1717                           	opt stack 0
  1718  0004F6                     _allBitsOff:
  1719                           	opt stack 23
  1720                           
  1721                           ;main.c: 379: else{
  1722                           ;main.c: 380: oneBitOff();
  1723                           
  1724                           ;main.c: 378: }
  1725                           
  1726                           ;main.c: 377: oneBitOn();
  1727                           
  1728                           ;main.c: 376: if (0 == 1){
  1729                           
  1730                           ;incstack = 0
  1731  0004F6  EC1B  F003         	call	_oneBitOff	;wreg free
  1732                           
  1733                           ;main.c: 387: else{
  1734                           ;main.c: 388: oneBitOff();
  1735                           
  1736                           ;main.c: 386: }
  1737                           
  1738                           ;main.c: 385: oneBitOn();
  1739                           
  1740                           ;main.c: 381: }
  1741                           ;main.c: 384: if (0 == 1){
  1742  0004FA  EC1B  F003         	call	_oneBitOff	;wreg free
  1743                           
  1744                           ;main.c: 395: else{
  1745                           ;main.c: 396: oneBitOff();
  1746                           
  1747                           ;main.c: 394: }
  1748                           
  1749                           ;main.c: 393: oneBitOn();
  1750                           
  1751                           ;main.c: 389: }
  1752                           ;main.c: 392: if (0 == 1){
  1753  0004FE  EC1B  F003         	call	_oneBitOff	;wreg free
  1754                           
  1755                           ;main.c: 403: else{
  1756                           ;main.c: 404: oneBitOff();
  1757                           
  1758                           ;main.c: 402: }
  1759                           
  1760                           ;main.c: 401: oneBitOn();
  1761                           
  1762                           ;main.c: 397: }
  1763                           ;main.c: 400: if (0 == 1){
  1764  000502  EC1B  F003         	call	_oneBitOff	;wreg free
  1765                           
  1766                           ;main.c: 411: else{
  1767                           ;main.c: 412: oneBitOff();
  1768                           
  1769                           ;main.c: 410: }
  1770                           
  1771                           ;main.c: 409: oneBitOn();
  1772                           
  1773                           ;main.c: 405: }
  1774                           ;main.c: 408: if (0 == 1){
  1775  000506  EC1B  F003         	call	_oneBitOff	;wreg free
  1776                           
  1777                           ;main.c: 419: else{
  1778                           ;main.c: 420: oneBitOff();
  1779                           
  1780                           ;main.c: 418: }
  1781                           
  1782                           ;main.c: 417: oneBitOn();
  1783                           
  1784                           ;main.c: 413: }
  1785                           ;main.c: 416: if (0 == 1){
  1786  00050A  EC1B  F003         	call	_oneBitOff	;wreg free
  1787                           
  1788                           ;main.c: 427: else{
  1789                           ;main.c: 428: oneBitOff();
  1790                           
  1791                           ;main.c: 426: }
  1792                           
  1793                           ;main.c: 425: oneBitOn();
  1794                           
  1795                           ;main.c: 421: }
  1796                           ;main.c: 424: if (0 == 1){
  1797  00050E  EC1B  F003         	call	_oneBitOff	;wreg free
  1798                           
  1799                           ;main.c: 435: else{
  1800                           ;main.c: 436: oneBitOff();
  1801                           
  1802                           ;main.c: 434: }
  1803                           
  1804                           ;main.c: 433: oneBitOn();
  1805                           
  1806                           ;main.c: 429: }
  1807                           ;main.c: 432: if (0 == 1){
  1808  000512  EC1B  F003         	call	_oneBitOff	;wreg free
  1809  000516  0012               	return	
  1810  000518                     __end_of_allBitsOff:
  1811                           	opt stack 0
  1812                           tblptru	equ	0xFF8
  1813                           wreg	equ	0xFE8
  1814                           status	equ	0xFD8
  1815                           
  1816 ;; *************** function _oneBitOn *****************
  1817 ;; Defined at:
  1818 ;;		line 441 in file "main.c"
  1819 ;; Parameters:    Size  Location     Type
  1820 ;;		None
  1821 ;; Auto vars:     Size  Location     Type
  1822 ;;		None
  1823 ;; Return value:  Size  Location     Type
  1824 ;;                  1    wreg      void 
  1825 ;; Registers used:
  1826 ;;		wreg
  1827 ;; Tracked objects:
  1828 ;;		On entry : 0/0
  1829 ;;		On exit  : 0/0
  1830 ;;		Unchanged: 0/0
  1831 ;; Data sizes:     COMRAM   BANK0   BANK1   BANK2   BANK3   BANK4   BANK5   BANK6   BANK7   BANK8   BANK9  BANK10  BANK1
      +1  BANK12  BANK13  BANK14
  1832 ;;      Params:         0       0       0       0       0       0       0       0       0       0       0       0       
      +0       0       0       0
  1833 ;;      Locals:         0       0       0       0       0       0       0       0       0       0       0       0       
      +0       0       0       0
  1834 ;;      Temps:          0       0       0       0       0       0       0       0       0       0       0       0       
      +0       0       0       0
  1835 ;;      Totals:         0       0       0       0       0       0       0       0       0       0       0       0       
      +0       0       0       0
  1836 ;;Total ram usage:        0 bytes
  1837 ;; Hardware stack levels used:    1
  1838 ;; Hardware stack levels required when called:    4
  1839 ;; This function calls:
  1840 ;;		Nothing
  1841 ;; This function is called by:
  1842 ;;		_brightness
  1843 ;;		_allBitsOff
  1844 ;; This function uses a non-reentrant model
  1845 ;;
  1846                           
  1847                           	psect	text13
  1848  0005FE                     __ptext13:
  1849                           	opt stack 0
  1850  0005FE                     _oneBitOn:
  1851                           	opt stack 24
  1852                           
  1853                           ;main.c: 443: PORTCbits.RC0 = 1;
  1854                           
  1855                           ;incstack = 0
  1856  0005FE  808F               	bsf	3983,0,c	;volatile
  1857                           
  1858                           ;main.c: 444: _delay((unsigned long)((.7)*(64000000/4000000.0)));
  1859  000600  0E03               	movlw	3
  1860  000602                     u1057:
  1861  000602  2EE8               	decfsz	wreg,f,c
  1862  000604  D7FE               	bra	u1057
  1863  000606  D000               	nop2	
  1864                           
  1865                           ;main.c: 445: PORTCbits.RC0 = 0;
  1866  000608  908F               	bcf	3983,0,c	;volatile
  1867                           
  1868                           ;main.c: 446: _delay((unsigned long)((0.6)*(64000000/4000000.0)));
  1869  00060A  0E03               	movlw	3
  1870  00060C                     u1067:
  1871  00060C  2EE8               	decfsz	wreg,f,c
  1872  00060E  D7FE               	bra	u1067
  1873  000610  0012               	return		;funcret
  1874  000612                     __end_of_oneBitOn:
  1875                           	opt stack 0
  1876                           tblptru	equ	0xFF8
  1877                           wreg	equ	0xFE8
  1878                           status	equ	0xFD8
  1879                           
  1880 ;; *************** function _oneBitOff *****************
  1881 ;; Defined at:
  1882 ;;		line 450 in file "main.c"
  1883 ;; Parameters:    Size  Location     Type
  1884 ;;		None
  1885 ;; Auto vars:     Size  Location     Type
  1886 ;;		None
  1887 ;; Return value:  Size  Location     Type
  1888 ;;                  1    wreg      void 
  1889 ;; Registers used:
  1890 ;;		wreg
  1891 ;; Tracked objects:
  1892 ;;		On entry : 0/0
  1893 ;;		On exit  : 0/0
  1894 ;;		Unchanged: 0/0
  1895 ;; Data sizes:     COMRAM   BANK0   BANK1   BANK2   BANK3   BANK4   BANK5   BANK6   BANK7   BANK8   BANK9  BANK10  BANK1
      +1  BANK12  BANK13  BANK14
  1896 ;;      Params:         0       0       0       0       0       0       0       0       0       0       0       0       
      +0       0       0       0
  1897 ;;      Locals:         0       0       0       0       0       0       0       0       0       0       0       0       
      +0       0       0       0
  1898 ;;      Temps:          0       0       0       0       0       0       0       0       0       0       0       0       
      +0       0       0       0
  1899 ;;      Totals:         0       0       0       0       0       0       0       0       0       0       0       0       
      +0       0       0       0
  1900 ;;Total ram usage:        0 bytes
  1901 ;; Hardware stack levels used:    1
  1902 ;; Hardware stack levels required when called:    4
  1903 ;; This function calls:
  1904 ;;		Nothing
  1905 ;; This function is called by:
  1906 ;;		_brightness
  1907 ;;		_allBitsOff
  1908 ;; This function uses a non-reentrant model
  1909 ;;
  1910                           
  1911                           	psect	text14
  1912  000636                     __ptext14:
  1913                           	opt stack 0
  1914  000636                     _oneBitOff:
  1915                           	opt stack 24
  1916                           
  1917                           ;main.c: 452: PORTCbits.RC0 = 1;
  1918                           
  1919                           ;incstack = 0
  1920  000636  808F               	bsf	3983,0,c	;volatile
  1921                           
  1922                           ;main.c: 453: _delay((unsigned long)((0.35)*(64000000/4000000.0)));
  1923  000638  D000               	nop2		;2 cycle nop
  1924  00063A  D000               	nop2		;2 cycle nop
  1925  00063C  F000               	nop	
  1926                           
  1927                           ;main.c: 454: PORTCbits.RC0 = 0;
  1928  00063E  908F               	bcf	3983,0,c	;volatile
  1929                           
  1930                           ;main.c: 455: _delay((unsigned long)((0.6)*(64000000/4000000.0)));
  1931  000640  0E03               	movlw	3
  1932  000642                     u1077:
  1933  000642  2EE8               	decfsz	wreg,f,c
  1934  000644  D7FE               	bra	u1077
  1935  000646  0012               	return		;funcret
  1936  000648                     __end_of_oneBitOff:
  1937                           	opt stack 0
  1938                           tblptru	equ	0xFF8
  1939                           wreg	equ	0xFE8
  1940                           status	equ	0xFD8
  1941                           
  1942 ;; *************** function _SYSTEM_Initialize *****************
  1943 ;; Defined at:
  1944 ;;		line 107 in file "mcc_generated_files/mcc.c"
  1945 ;; Parameters:    Size  Location     Type
  1946 ;;		None
  1947 ;; Auto vars:     Size  Location     Type
  1948 ;;		None
  1949 ;; Return value:  Size  Location     Type
  1950 ;;                  1    wreg      void 
  1951 ;; Registers used:
  1952 ;;		wreg, status,2, status,0, cstack
  1953 ;; Tracked objects:
  1954 ;;		On entry : 0/0
  1955 ;;		On exit  : 0/0
  1956 ;;		Unchanged: 0/0
  1957 ;; Data sizes:     COMRAM   BANK0   BANK1   BANK2   BANK3   BANK4   BANK5   BANK6   BANK7   BANK8   BANK9  BANK10  BANK1
      +1  BANK12  BANK13  BANK14
  1958 ;;      Params:         0       0       0       0       0       0       0       0       0       0       0       0       
      +0       0       0       0
  1959 ;;      Locals:         0       0       0       0       0       0       0       0       0       0       0       0       
      +0       0       0       0
  1960 ;;      Temps:          0       0       0       0       0       0       0       0       0       0       0       0       
      +0       0       0       0
  1961 ;;      Totals:         0       0       0       0       0       0       0       0       0       0       0       0       
      +0       0       0       0
  1962 ;;Total ram usage:        0 bytes
  1963 ;; Hardware stack levels used:    1
  1964 ;; Hardware stack levels required when called:    6
  1965 ;; This function calls:
  1966 ;;		_ADCC_Initialize
  1967 ;;		_INTERRUPT_Initialize
  1968 ;;		_OSCILLATOR_Initialize
  1969 ;;		_PIN_MANAGER_Initialize
  1970 ;; This function is called by:
  1971 ;;		_main
  1972 ;; This function uses a non-reentrant model
  1973 ;;
  1974                           
  1975                           	psect	text15
  1976  000648                     __ptext15:
  1977                           	opt stack 0
  1978  000648                     _SYSTEM_Initialize:
  1979                           	opt stack 24
  1980                           
  1981                           ;mcc.c: 110: INTERRUPT_Initialize();
  1982                           
  1983                           ;incstack = 0
  1984  000648  EC40  F003         	call	_INTERRUPT_Initialize	;wreg free
  1985                           
  1986                           ;mcc.c: 111: PIN_MANAGER_Initialize();
  1987  00064C  EC2C  F001         	call	_PIN_MANAGER_Initialize	;wreg free
  1988                           
  1989                           ;mcc.c: 112: OSCILLATOR_Initialize();
  1990  000650  EC8C  F002         	call	_OSCILLATOR_Initialize	;wreg free
  1991                           
  1992                           ;mcc.c: 113: ADCC_Initialize();
  1993  000654  ECF7  F001         	call	_ADCC_Initialize	;wreg free
  1994  000658  0012               	return		;funcret
  1995  00065A                     __end_of_SYSTEM_Initialize:
  1996                           	opt stack 0
  1997                           tblptru	equ	0xFF8
  1998                           wreg	equ	0xFE8
  1999                           status	equ	0xFD8
  2000                           
  2001 ;; *************** function _PIN_MANAGER_Initialize *****************
  2002 ;; Defined at:
  2003 ;;		line 57 in file "mcc_generated_files/pin_manager.c"
  2004 ;; Parameters:    Size  Location     Type
  2005 ;;		None
  2006 ;; Auto vars:     Size  Location     Type
  2007 ;;  state           1   22[COMRAM] unsigned char 
  2008 ;; Return value:  Size  Location     Type
  2009 ;;                  1    wreg      void 
  2010 ;; Registers used:
  2011 ;;		wreg, status,2, status,0, cstack
  2012 ;; Tracked objects:
  2013 ;;		On entry : 0/0
  2014 ;;		On exit  : 0/0
  2015 ;;		Unchanged: 0/0
  2016 ;; Data sizes:     COMRAM   BANK0   BANK1   BANK2   BANK3   BANK4   BANK5   BANK6   BANK7   BANK8   BANK9  BANK10  BANK1
      +1  BANK12  BANK13  BANK14
  2017 ;;      Params:         0       0       0       0       0       0       0       0       0       0       0       0       
      +0       0       0       0
  2018 ;;      Locals:         1       0       0       0       0       0       0       0       0       0       0       0       
      +0       0       0       0
  2019 ;;      Temps:          2       0       0       0       0       0       0       0       0       0       0       0       
      +0       0       0       0
  2020 ;;      Totals:         3       0       0       0       0       0       0       0       0       0       0       0       
      +0       0       0       0
  2021 ;;Total ram usage:        3 bytes
  2022 ;; Hardware stack levels used:    1
  2023 ;; Hardware stack levels required when called:    5
  2024 ;; This function calls:
  2025 ;;		_DATAEE_ReadByte
  2026 ;;		_IOCBF0_SetInterruptHandler
  2027 ;; This function is called by:
  2028 ;;		_SYSTEM_Initialize
  2029 ;; This function uses a non-reentrant model
  2030 ;;
  2031                           
  2032                           	psect	text16
  2033  000258                     __ptext16:
  2034                           	opt stack 0
  2035  000258                     _PIN_MANAGER_Initialize:
  2036                           	opt stack 24
  2037                           
  2038                           ;pin_manager.c: 59: color = DATAEE_ReadByte(0x03FE);
  2039                           
  2040                           ;incstack = 0
  2041  000258  0E03               	movlw	3
  2042  00025A  6E14               	movwf	DATAEE_ReadByte@bAdd+1,c
  2043  00025C  0EFE               	movlw	254
  2044  00025E  6E13               	movwf	DATAEE_ReadByte@bAdd,c
  2045  000260  EC9C  F002         	call	_DATAEE_ReadByte	;wreg free
  2046  000264  6E29               	movwf	_color,c
  2047                           
  2048                           ;pin_manager.c: 63: LATA = 0x00;
  2049  000266  0E00               	movlw	0
  2050  000268  6E83               	movwf	3971,c	;volatile
  2051                           
  2052                           ;pin_manager.c: 64: LATB = 0x00;
  2053  00026A  0E00               	movlw	0
  2054  00026C  6E84               	movwf	3972,c	;volatile
  2055                           
  2056                           ;pin_manager.c: 65: LATC = 0x00;
  2057  00026E  0E00               	movlw	0
  2058  000270  6E85               	movwf	3973,c	;volatile
  2059                           
  2060                           ;pin_manager.c: 70: TRISA = 0xFF;
  2061  000272  6888               	setf	3976,c	;volatile
  2062                           
  2063                           ;pin_manager.c: 71: TRISB = 0xFF;
  2064  000274  6889               	setf	3977,c	;volatile
  2065                           
  2066                           ;pin_manager.c: 72: TRISC = 0xFE;
  2067  000276  0EFE               	movlw	254
  2068  000278  6E8A               	movwf	3978,c	;volatile
  2069                           
  2070                           ;pin_manager.c: 77: ANSELC = 0xFF;
  2071  00027A  010F               	movlb	15	; () banked
  2072  00027C  6921               	setf	33,b	;volatile
  2073                           
  2074                           ; BSR set to: 15
  2075                           ;pin_manager.c: 78: ANSELB = 0xEE;
  2076  00027E  0EEE               	movlw	238
  2077  000280  010F               	movlb	15	; () banked
  2078  000282  6F19               	movwf	25,b	;volatile
  2079                           
  2080                           ; BSR set to: 15
  2081                           ;pin_manager.c: 79: ANSELA = 0xFF;
  2082  000284  010F               	movlb	15	; () banked
  2083  000286  6911               	setf	17,b	;volatile
  2084                           
  2085                           ; BSR set to: 15
  2086                           ;pin_manager.c: 84: WPUE = 0x00;
  2087  000288  0E00               	movlw	0
  2088  00028A  010F               	movlb	15	; () banked
  2089  00028C  6F2D               	movwf	45,b	;volatile
  2090                           
  2091                           ; BSR set to: 15
  2092                           ;pin_manager.c: 85: WPUB = 0x01;
  2093  00028E  0E01               	movlw	1
  2094  000290  010F               	movlb	15	; () banked
  2095  000292  6F18               	movwf	24,b	;volatile
  2096                           
  2097                           ; BSR set to: 15
  2098                           ;pin_manager.c: 86: WPUA = 0x00;
  2099  000294  0E00               	movlw	0
  2100  000296  010F               	movlb	15	; () banked
  2101  000298  6F10               	movwf	16,b	;volatile
  2102                           
  2103                           ; BSR set to: 15
  2104                           ;pin_manager.c: 87: WPUC = 0x00;
  2105  00029A  0E00               	movlw	0
  2106  00029C  010F               	movlb	15	; () banked
  2107  00029E  6F20               	movwf	32,b	;volatile
  2108                           
  2109                           ; BSR set to: 15
  2110                           ;pin_manager.c: 92: ODCONA = 0x00;
  2111  0002A0  0E00               	movlw	0
  2112  0002A2  010F               	movlb	15	; () banked
  2113  0002A4  6F0F               	movwf	15,b	;volatile
  2114                           
  2115                           ; BSR set to: 15
  2116                           ;pin_manager.c: 93: ODCONB = 0x00;
  2117  0002A6  0E00               	movlw	0
  2118  0002A8  010F               	movlb	15	; () banked
  2119  0002AA  6F17               	movwf	23,b	;volatile
  2120                           
  2121                           ; BSR set to: 15
  2122                           ;pin_manager.c: 94: ODCONC = 0x00;
  2123  0002AC  0E00               	movlw	0
  2124  0002AE  010F               	movlb	15	; () banked
  2125  0002B0  6F1F               	movwf	31,b	;volatile
  2126                           
  2127                           ; BSR set to: 15
  2128                           ;pin_manager.c: 96: _delay((unsigned long)((100)*(64000000/4000.0)));
  2129  0002B2  0E09               	movlw	9
  2130  0002B4  6E16               	movwf	(??_PIN_MANAGER_Initialize+1)& (0+255),c
  2131  0002B6  0E1E               	movlw	30
  2132  0002B8  6E15               	movwf	??_PIN_MANAGER_Initialize& (0+255),c
  2133  0002BA  0EE4               	movlw	228
  2134  0002BC                     u1087:
  2135  0002BC  2EE8               	decfsz	wreg,f,c
  2136  0002BE  D7FE               	bra	u1087
  2137  0002C0  2E15               	decfsz	??_PIN_MANAGER_Initialize& (0+255),f,c
  2138  0002C2  D7FC               	bra	u1087
  2139  0002C4  2E16               	decfsz	(??_PIN_MANAGER_Initialize+1)& (0+255),f,c
  2140  0002C6  D7FA               	bra	u1087
  2141  0002C8  D000               	nop2	
  2142                           
  2143                           ;pin_manager.c: 101: IOCBFbits.IOCBF0 = 1;
  2144  0002CA  010F               	movlb	15	; () banked
  2145  0002CC  8112               	bsf	18,0,b	;volatile
  2146                           
  2147                           ; BSR set to: 15
  2148                           ;pin_manager.c: 103: IOCBNbits.IOCBN0 = 1;
  2149  0002CE  010F               	movlb	15	; () banked
  2150  0002D0  8113               	bsf	19,0,b	;volatile
  2151                           
  2152                           ; BSR set to: 15
  2153                           ;pin_manager.c: 105: IOCBPbits.IOCBP0 = 0;
  2154  0002D2  010F               	movlb	15	; () banked
  2155  0002D4  9114               	bcf	20,0,b	;volatile
  2156                           
  2157                           ; BSR set to: 15
  2158                           ;pin_manager.c: 108: IOCBF0_SetInterruptHandler(IOCBF0_DefaultInterruptHandler);
  2159  0002D6  0E84               	movlw	low _IOCBF0_DefaultInterruptHandler
  2160  0002D8  6E13               	movwf	IOCBF0_SetInterruptHandler@InterruptHandler,c
  2161  0002DA  0E06               	movlw	high _IOCBF0_DefaultInterruptHandler
  2162  0002DC  6E14               	movwf	IOCBF0_SetInterruptHandler@InterruptHandler+1,c
  2163  0002DE  EC3B  F003         	call	_IOCBF0_SetInterruptHandler	;wreg free
  2164                           
  2165                           ;pin_manager.c: 111: PIE0bits.IOCIE = 1;
  2166  0002E2  010E               	movlb	14	; () banked
  2167  0002E4  89C2               	bsf	194,4,b	;volatile
  2168                           
  2169                           ; BSR set to: 14
  2170                           ;pin_manager.c: 114: bool state = (unsigned char)GIE;
  2171  0002E6  0E00               	movlw	0
  2172  0002E8  BEF2               	btfsc	intcon,7,c	;volatile
  2173  0002EA  0E01               	movlw	1
  2174  0002EC  6E17               	movwf	PIN_MANAGER_Initialize@state,c
  2175                           
  2176                           ; BSR set to: 14
  2177                           ;pin_manager.c: 115: GIE = 0;
  2178  0002EE  9EF2               	bcf	intcon,7,c	;volatile
  2179                           
  2180                           ; BSR set to: 14
  2181                           ;pin_manager.c: 116: PPSLOCK = 0x55;
  2182  0002F0  0E55               	movlw	85
  2183  0002F2  010E               	movlb	14	; () banked
  2184  0002F4  6FA0               	movwf	160,b	;volatile
  2185                           
  2186                           ; BSR set to: 14
  2187                           ;pin_manager.c: 117: PPSLOCK = 0xAA;
  2188  0002F6  0EAA               	movlw	170
  2189  0002F8  010E               	movlb	14	; () banked
  2190  0002FA  6FA0               	movwf	160,b	;volatile
  2191                           
  2192                           ; BSR set to: 14
  2193                           ;pin_manager.c: 118: PPSLOCKbits.PPSLOCKED = 0x00;
  2194  0002FC  010E               	movlb	14	; () banked
  2195  0002FE  91A0               	bcf	160,0,b	;volatile
  2196                           
  2197                           ; BSR set to: 14
  2198                           ;pin_manager.c: 120: ADACTPPSbits.ADACTPPS = 0x0C;
  2199  000300  010E               	movlb	14	; () banked
  2200  000302  91AE               	bcf	174,0,b	;volatile
  2201  000304  93AE               	bcf	174,1,b	;volatile
  2202  000306  85AE               	bsf	174,2,b	;volatile
  2203  000308  87AE               	bsf	174,3,b	;volatile
  2204  00030A  99AE               	bcf	174,4,b	;volatile
  2205                           
  2206                           ; BSR set to: 14
  2207                           ;pin_manager.c: 122: PPSLOCK = 0x55;
  2208  00030C  0E55               	movlw	85
  2209  00030E  010E               	movlb	14	; () banked
  2210  000310  6FA0               	movwf	160,b	;volatile
  2211                           
  2212                           ; BSR set to: 14
  2213                           ;pin_manager.c: 123: PPSLOCK = 0xAA;
  2214  000312  0EAA               	movlw	170
  2215  000314  010E               	movlb	14	; () banked
  2216  000316  6FA0               	movwf	160,b	;volatile
  2217                           
  2218                           ; BSR set to: 14
  2219                           ;pin_manager.c: 124: PPSLOCKbits.PPSLOCKED = 0x01;
  2220  000318  010E               	movlb	14	; () banked
  2221  00031A  81A0               	bsf	160,0,b	;volatile
  2222                           
  2223                           ; BSR set to: 14
  2224                           ;pin_manager.c: 126: GIE = state;
  2225  00031C  A017               	btfss	PIN_MANAGER_Initialize@state,0,c
  2226  00031E  D002               	goto	u580
  2227  000320  8EF2               	bsf	intcon,7,c	;volatile
  2228  000322  D001               	goto	l1869
  2229  000324                     u580:
  2230  000324  9EF2               	bcf	intcon,7,c	;volatile
  2231  000326                     l1869:
  2232                           
  2233                           ;pin_manager.c: 127: GIE = 1;
  2234  000326  8EF2               	bsf	intcon,7,c	;volatile
  2235  000328  0012               	return		;funcret
  2236  00032A                     __end_of_PIN_MANAGER_Initialize:
  2237                           	opt stack 0
  2238                           tblptru	equ	0xFF8
  2239                           intcon	equ	0xFF2
  2240                           wreg	equ	0xFE8
  2241                           status	equ	0xFD8
  2242                           
  2243 ;; *************** function _IOCBF0_SetInterruptHandler *****************
  2244 ;; Defined at:
  2245 ;;		line 172 in file "mcc_generated_files/pin_manager.c"
  2246 ;; Parameters:    Size  Location     Type
  2247 ;;  InterruptHan    2   18[COMRAM] PTR void 
  2248 ;;		 -> IOCBF0_DefaultInterruptHandler(1), 
  2249 ;; Auto vars:     Size  Location     Type
  2250 ;;		None
  2251 ;; Return value:  Size  Location     Type
  2252 ;;                  1    wreg      void 
  2253 ;; Registers used:
  2254 ;;		wreg, status,2, status,0
  2255 ;; Tracked objects:
  2256 ;;		On entry : 0/0
  2257 ;;		On exit  : 0/0
  2258 ;;		Unchanged: 0/0
  2259 ;; Data sizes:     COMRAM   BANK0   BANK1   BANK2   BANK3   BANK4   BANK5   BANK6   BANK7   BANK8   BANK9  BANK10  BANK1
      +1  BANK12  BANK13  BANK14
  2260 ;;      Params:         2       0       0       0       0       0       0       0       0       0       0       0       
      +0       0       0       0
  2261 ;;      Locals:         0       0       0       0       0       0       0       0       0       0       0       0       
      +0       0       0       0
  2262 ;;      Temps:          0       0       0       0       0       0       0       0       0       0       0       0       
      +0       0       0       0
  2263 ;;      Totals:         2       0       0       0       0       0       0       0       0       0       0       0       
      +0       0       0       0
  2264 ;;Total ram usage:        2 bytes
  2265 ;; Hardware stack levels used:    1
  2266 ;; Hardware stack levels required when called:    4
  2267 ;; This function calls:
  2268 ;;		Nothing
  2269 ;; This function is called by:
  2270 ;;		_PIN_MANAGER_Initialize
  2271 ;; This function uses a non-reentrant model
  2272 ;;
  2273                           
  2274                           	psect	text17
  2275  000676                     __ptext17:
  2276                           	opt stack 0
  2277  000676                     _IOCBF0_SetInterruptHandler:
  2278                           	opt stack 24
  2279                           
  2280                           ;pin_manager.c: 173: IOCBF0_InterruptHandler = InterruptHandler;
  2281                           
  2282                           ;incstack = 0
  2283  000676  C013  F027         	movff	IOCBF0_SetInterruptHandler@InterruptHandler,_IOCBF0_InterruptHandler
  2284  00067A  C014  F028         	movff	IOCBF0_SetInterruptHandler@InterruptHandler+1,_IOCBF0_InterruptHandler+1
  2285  00067E  0012               	return		;funcret
  2286  000680                     __end_of_IOCBF0_SetInterruptHandler:
  2287                           	opt stack 0
  2288                           tblptru	equ	0xFF8
  2289                           intcon	equ	0xFF2
  2290                           wreg	equ	0xFE8
  2291                           status	equ	0xFD8
  2292                           
  2293 ;; *************** function _DATAEE_ReadByte *****************
  2294 ;; Defined at:
  2295 ;;		line 186 in file "mcc_generated_files/memory.c"
  2296 ;; Parameters:    Size  Location     Type
  2297 ;;  bAdd            2   18[COMRAM] unsigned int 
  2298 ;; Auto vars:     Size  Location     Type
  2299 ;;		None
  2300 ;; Return value:  Size  Location     Type
  2301 ;;                  1    wreg      unsigned char 
  2302 ;; Registers used:
  2303 ;;		wreg, status,2, status,0
  2304 ;; Tracked objects:
  2305 ;;		On entry : 0/0
  2306 ;;		On exit  : 0/0
  2307 ;;		Unchanged: 0/0
  2308 ;; Data sizes:     COMRAM   BANK0   BANK1   BANK2   BANK3   BANK4   BANK5   BANK6   BANK7   BANK8   BANK9  BANK10  BANK1
      +1  BANK12  BANK13  BANK14
  2309 ;;      Params:         2       0       0       0       0       0       0       0       0       0       0       0       
      +0       0       0       0
  2310 ;;      Locals:         0       0       0       0       0       0       0       0       0       0       0       0       
      +0       0       0       0
  2311 ;;      Temps:          0       0       0       0       0       0       0       0       0       0       0       0       
      +0       0       0       0
  2312 ;;      Totals:         2       0       0       0       0       0       0       0       0       0       0       0       
      +0       0       0       0
  2313 ;;Total ram usage:        2 bytes
  2314 ;; Hardware stack levels used:    1
  2315 ;; Hardware stack levels required when called:    4
  2316 ;; This function calls:
  2317 ;;		Nothing
  2318 ;; This function is called by:
  2319 ;;		_PIN_MANAGER_Initialize
  2320 ;; This function uses a non-reentrant model
  2321 ;;
  2322                           
  2323                           	psect	text18
  2324  000538                     __ptext18:
  2325                           	opt stack 0
  2326  000538                     _DATAEE_ReadByte:
  2327                           	opt stack 24
  2328                           
  2329                           ;memory.c: 188: NVMADRH = ((bAdd >> 8) & 0x03);
  2330                           
  2331                           ;incstack = 0
  2332  000538  5014               	movf	DATAEE_ReadByte@bAdd+1,w,c
  2333  00053A  0B03               	andlw	3
  2334  00053C  6E7F               	movwf	3967,c	;volatile
  2335                           
  2336                           ;memory.c: 189: NVMADRL = (bAdd & 0xFF);
  2337  00053E  C013  FF7E         	movff	DATAEE_ReadByte@bAdd,3966	;volatile
  2338                           
  2339                           ;memory.c: 190: NVMCON1bits.NVMREG = 0;
  2340  000542  0E3F               	movlw	-193
  2341  000544  1681               	andwf	3969,f,c	;volatile
  2342                           
  2343                           ;memory.c: 191: NVMCON1bits.RD = 1;
  2344  000546  8081               	bsf	3969,0,c	;volatile
  2345                           
  2346                           ;memory.c: 192: __nop();
  2347  000548  F000               	nop	
  2348                           
  2349                           ;memory.c: 193: __nop();
  2350  00054A  F000               	nop	
  2351                           
  2352                           ;memory.c: 195: return (NVMDAT);
  2353  00054C  5080               	movf	3968,w,c	;volatile
  2354  00054E  0012               	return	
  2355  000550                     __end_of_DATAEE_ReadByte:
  2356                           	opt stack 0
  2357                           tblptru	equ	0xFF8
  2358                           intcon	equ	0xFF2
  2359                           wreg	equ	0xFE8
  2360                           status	equ	0xFD8
  2361                           
  2362 ;; *************** function _OSCILLATOR_Initialize *****************
  2363 ;; Defined at:
  2364 ;;		line 116 in file "mcc_generated_files/mcc.c"
  2365 ;; Parameters:    Size  Location     Type
  2366 ;;		None
  2367 ;; Auto vars:     Size  Location     Type
  2368 ;;		None
  2369 ;; Return value:  Size  Location     Type
  2370 ;;                  1    wreg      void 
  2371 ;; Registers used:
  2372 ;;		wreg, status,2
  2373 ;; Tracked objects:
  2374 ;;		On entry : 0/0
  2375 ;;		On exit  : 0/0
  2376 ;;		Unchanged: 0/0
  2377 ;; Data sizes:     COMRAM   BANK0   BANK1   BANK2   BANK3   BANK4   BANK5   BANK6   BANK7   BANK8   BANK9  BANK10  BANK1
      +1  BANK12  BANK13  BANK14
  2378 ;;      Params:         0       0       0       0       0       0       0       0       0       0       0       0       
      +0       0       0       0
  2379 ;;      Locals:         0       0       0       0       0       0       0       0       0       0       0       0       
      +0       0       0       0
  2380 ;;      Temps:          0       0       0       0       0       0       0       0       0       0       0       0       
      +0       0       0       0
  2381 ;;      Totals:         0       0       0       0       0       0       0       0       0       0       0       0       
      +0       0       0       0
  2382 ;;Total ram usage:        0 bytes
  2383 ;; Hardware stack levels used:    1
  2384 ;; Hardware stack levels required when called:    4
  2385 ;; This function calls:
  2386 ;;		Nothing
  2387 ;; This function is called by:
  2388 ;;		_SYSTEM_Initialize
  2389 ;; This function uses a non-reentrant model
  2390 ;;
  2391                           
  2392                           	psect	text19
  2393  000518                     __ptext19:
  2394                           	opt stack 0
  2395  000518                     _OSCILLATOR_Initialize:
  2396                           	opt stack 25
  2397                           
  2398                           ;mcc.c: 119: OSCCON1 = 0x60;
  2399                           
  2400                           ;incstack = 0
  2401  000518  0E60               	movlw	96
  2402  00051A  010E               	movlb	14	; () banked
  2403  00051C  6FD8               	movwf	216,b	;volatile
  2404                           
  2405                           ;mcc.c: 121: OSCCON3 = 0x00;
  2406  00051E  0E00               	movlw	0
  2407  000520  010E               	movlb	14	; () banked
  2408  000522  6FDA               	movwf	218,b	;volatile
  2409                           
  2410                           ;mcc.c: 123: OSCEN = 0x00;
  2411  000524  0E00               	movlw	0
  2412  000526  010E               	movlb	14	; () banked
  2413  000528  6FDC               	movwf	220,b	;volatile
  2414                           
  2415                           ;mcc.c: 125: OSCFRQ = 0x08;
  2416  00052A  0E08               	movlw	8
  2417  00052C  010E               	movlb	14	; () banked
  2418  00052E  6FDE               	movwf	222,b	;volatile
  2419                           
  2420                           ;mcc.c: 127: OSCTUNE = 0x00;
  2421  000530  0E00               	movlw	0
  2422  000532  010E               	movlb	14	; () banked
  2423  000534  6FDD               	movwf	221,b	;volatile
  2424                           
  2425                           ; BSR set to: 14
  2426  000536  0012               	return		;funcret
  2427  000538                     __end_of_OSCILLATOR_Initialize:
  2428                           	opt stack 0
  2429                           tblptru	equ	0xFF8
  2430                           intcon	equ	0xFF2
  2431                           wreg	equ	0xFE8
  2432                           status	equ	0xFD8
  2433                           
  2434 ;; *************** function _INTERRUPT_Initialize *****************
  2435 ;; Defined at:
  2436 ;;		line 51 in file "mcc_generated_files/interrupt_manager.c"
  2437 ;; Parameters:    Size  Location     Type
  2438 ;;		None
  2439 ;; Auto vars:     Size  Location     Type
  2440 ;;		None
  2441 ;; Return value:  Size  Location     Type
  2442 ;;                  1    wreg      void 
  2443 ;; Registers used:
  2444 ;;		None
  2445 ;; Tracked objects:
  2446 ;;		On entry : 0/0
  2447 ;;		On exit  : 0/0
  2448 ;;		Unchanged: 0/0
  2449 ;; Data sizes:     COMRAM   BANK0   BANK1   BANK2   BANK3   BANK4   BANK5   BANK6   BANK7   BANK8   BANK9  BANK10  BANK1
      +1  BANK12  BANK13  BANK14
  2450 ;;      Params:         0       0       0       0       0       0       0       0       0       0       0       0       
      +0       0       0       0
  2451 ;;      Locals:         0       0       0       0       0       0       0       0       0       0       0       0       
      +0       0       0       0
  2452 ;;      Temps:          0       0       0       0       0       0       0       0       0       0       0       0       
      +0       0       0       0
  2453 ;;      Totals:         0       0       0       0       0       0       0       0       0       0       0       0       
      +0       0       0       0
  2454 ;;Total ram usage:        0 bytes
  2455 ;; Hardware stack levels used:    1
  2456 ;; Hardware stack levels required when called:    4
  2457 ;; This function calls:
  2458 ;;		Nothing
  2459 ;; This function is called by:
  2460 ;;		_SYSTEM_Initialize
  2461 ;; This function uses a non-reentrant model
  2462 ;;
  2463                           
  2464                           	psect	text20
  2465  000680                     __ptext20:
  2466                           	opt stack 0
  2467  000680                     _INTERRUPT_Initialize:
  2468                           	opt stack 25
  2469                           
  2470                           ;interrupt_manager.c: 54: INTCONbits.IPEN = 0;
  2471                           
  2472                           ; BSR set to: 14
  2473                           ;incstack = 0
  2474  000680  9AF2               	bcf	intcon,5,c	;volatile
  2475  000682  0012               	return		;funcret
  2476  000684                     __end_of_INTERRUPT_Initialize:
  2477                           	opt stack 0
  2478                           tblptru	equ	0xFF8
  2479                           intcon	equ	0xFF2
  2480                           wreg	equ	0xFE8
  2481                           status	equ	0xFD8
  2482                           
  2483 ;; *************** function _ADCC_Initialize *****************
  2484 ;; Defined at:
  2485 ;;		line 61 in file "mcc_generated_files/adcc.c"
  2486 ;; Parameters:    Size  Location     Type
  2487 ;;		None
  2488 ;; Auto vars:     Size  Location     Type
  2489 ;;		None
  2490 ;; Return value:  Size  Location     Type
  2491 ;;                  1    wreg      void 
  2492 ;; Registers used:
  2493 ;;		wreg, status,2
  2494 ;; Tracked objects:
  2495 ;;		On entry : 0/0
  2496 ;;		On exit  : 0/0
  2497 ;;		Unchanged: 0/0
  2498 ;; Data sizes:     COMRAM   BANK0   BANK1   BANK2   BANK3   BANK4   BANK5   BANK6   BANK7   BANK8   BANK9  BANK10  BANK1
      +1  BANK12  BANK13  BANK14
  2499 ;;      Params:         0       0       0       0       0       0       0       0       0       0       0       0       
      +0       0       0       0
  2500 ;;      Locals:         0       0       0       0       0       0       0       0       0       0       0       0       
      +0       0       0       0
  2501 ;;      Temps:          0       0       0       0       0       0       0       0       0       0       0       0       
      +0       0       0       0
  2502 ;;      Totals:         0       0       0       0       0       0       0       0       0       0       0       0       
      +0       0       0       0
  2503 ;;Total ram usage:        0 bytes
  2504 ;; Hardware stack levels used:    1
  2505 ;; Hardware stack levels required when called:    4
  2506 ;; This function calls:
  2507 ;;		Nothing
  2508 ;; This function is called by:
  2509 ;;		_SYSTEM_Initialize
  2510 ;; This function uses a non-reentrant model
  2511 ;;
  2512                           
  2513                           	psect	text21
  2514  0003EE                     __ptext21:
  2515                           	opt stack 0
  2516  0003EE                     _ADCC_Initialize:
  2517                           	opt stack 25
  2518                           
  2519                           ;adcc.c: 65: ADCON1 = 0x00;
  2520                           
  2521                           ;incstack = 0
  2522  0003EE  0E00               	movlw	0
  2523  0003F0  010F               	movlb	15	; () banked
  2524  0003F2  6F59               	movwf	89,b	;volatile
  2525                           
  2526                           ;adcc.c: 67: ADCON2 = 0x00;
  2527  0003F4  0E00               	movlw	0
  2528  0003F6  010F               	movlb	15	; () banked
  2529  0003F8  6F5A               	movwf	90,b	;volatile
  2530                           
  2531                           ;adcc.c: 69: ADCON3 = 0x00;
  2532  0003FA  0E00               	movlw	0
  2533  0003FC  010F               	movlb	15	; () banked
  2534  0003FE  6F5B               	movwf	91,b	;volatile
  2535                           
  2536                           ;adcc.c: 71: ADACT = 0x00;
  2537  000400  0E00               	movlw	0
  2538  000402  010F               	movlb	15	; () banked
  2539  000404  6F56               	movwf	86,b	;volatile
  2540                           
  2541                           ;adcc.c: 73: ADSTAT = 0x00;
  2542  000406  0E00               	movlw	0
  2543  000408  6E65               	movwf	3941,c	;volatile
  2544                           
  2545                           ;adcc.c: 75: ADCLK = 0x3F;
  2546  00040A  0E3F               	movlw	63
  2547  00040C  010F               	movlb	15	; () banked
  2548  00040E  6F57               	movwf	87,b	;volatile
  2549                           
  2550                           ;adcc.c: 77: ADREF = 0x00;
  2551  000410  0E00               	movlw	0
  2552  000412  010F               	movlb	15	; () banked
  2553  000414  6F58               	movwf	88,b	;volatile
  2554                           
  2555                           ;adcc.c: 79: ADCAP = 0x00;
  2556  000416  0E00               	movlw	0
  2557  000418  010F               	movlb	15	; () banked
  2558  00041A  6F5D               	movwf	93,b	;volatile
  2559                           
  2560                           ;adcc.c: 81: ADPRE = 0x00;
  2561  00041C  0E00               	movlw	0
  2562  00041E  010F               	movlb	15	; () banked
  2563  000420  6F5E               	movwf	94,b	;volatile
  2564                           
  2565                           ;adcc.c: 83: ADACQ = 0x00;
  2566  000422  0E00               	movlw	0
  2567  000424  010F               	movlb	15	; () banked
  2568  000426  6F5C               	movwf	92,b	;volatile
  2569                           
  2570                           ;adcc.c: 85: ADPCH = 0x00;
  2571  000428  0E00               	movlw	0
  2572  00042A  010F               	movlb	15	; () banked
  2573  00042C  6F5F               	movwf	95,b	;volatile
  2574                           
  2575                           ;adcc.c: 87: ADRPT = 0x00;
  2576  00042E  0E00               	movlw	0
  2577  000430  6E66               	movwf	3942,c	;volatile
  2578                           
  2579                           ;adcc.c: 89: ADLTHL = 0x00;
  2580  000432  0E00               	movlw	0
  2581  000434  6E6A               	movwf	3946,c	;volatile
  2582                           
  2583                           ;adcc.c: 91: ADLTHH = 0x00;
  2584  000436  0E00               	movlw	0
  2585  000438  6E6B               	movwf	3947,c	;volatile
  2586                           
  2587                           ;adcc.c: 93: ADUTHL = 0x00;
  2588  00043A  0E00               	movlw	0
  2589  00043C  6E6C               	movwf	3948,c	;volatile
  2590                           
  2591                           ;adcc.c: 95: ADUTHH = 0x00;
  2592  00043E  0E00               	movlw	0
  2593  000440  6E6D               	movwf	3949,c	;volatile
  2594                           
  2595                           ;adcc.c: 97: ADSTPTL = 0x00;
  2596  000442  0E00               	movlw	0
  2597  000444  6E68               	movwf	3944,c	;volatile
  2598                           
  2599                           ;adcc.c: 99: ADSTPTH = 0x00;
  2600  000446  0E00               	movlw	0
  2601  000448  6E69               	movwf	3945,c	;volatile
  2602                           
  2603                           ;adcc.c: 102: ADCON0 = 0x84;
  2604  00044A  0E84               	movlw	132
  2605  00044C  6E60               	movwf	3936,c	;volatile
  2606                           
  2607                           ; BSR set to: 15
  2608  00044E  0012               	return		;funcret
  2609  000450                     __end_of_ADCC_Initialize:
  2610                           	opt stack 0
  2611                           tblptru	equ	0xFF8
  2612                           intcon	equ	0xFF2
  2613                           wreg	equ	0xFE8
  2614                           status	equ	0xFD8
  2615                           
  2616 ;; *************** function _ADCC_GetSingleConversion *****************
  2617 ;; Defined at:
  2618 ;;		line 131 in file "mcc_generated_files/adcc.c"
  2619 ;; Parameters:    Size  Location     Type
  2620 ;;  channel         1    wreg     enum E10995
  2621 ;; Auto vars:     Size  Location     Type
  2622 ;;  channel         1   22[COMRAM] enum E10995
  2623 ;; Return value:  Size  Location     Type
  2624 ;;                  2   18[COMRAM] unsigned int 
  2625 ;; Registers used:
  2626 ;;		wreg, status,2, status,0
  2627 ;; Tracked objects:
  2628 ;;		On entry : 0/0
  2629 ;;		On exit  : 0/0
  2630 ;;		Unchanged: 0/0
  2631 ;; Data sizes:     COMRAM   BANK0   BANK1   BANK2   BANK3   BANK4   BANK5   BANK6   BANK7   BANK8   BANK9  BANK10  BANK1
      +1  BANK12  BANK13  BANK14
  2632 ;;      Params:         2       0       0       0       0       0       0       0       0       0       0       0       
      +0       0       0       0
  2633 ;;      Locals:         1       0       0       0       0       0       0       0       0       0       0       0       
      +0       0       0       0
  2634 ;;      Temps:          2       0       0       0       0       0       0       0       0       0       0       0       
      +0       0       0       0
  2635 ;;      Totals:         5       0       0       0       0       0       0       0       0       0       0       0       
      +0       0       0       0
  2636 ;;Total ram usage:        5 bytes
  2637 ;; Hardware stack levels used:    1
  2638 ;; Hardware stack levels required when called:    4
  2639 ;; This function calls:
  2640 ;;		Nothing
  2641 ;; This function is called by:
  2642 ;;		_main
  2643 ;; This function uses a non-reentrant model
  2644 ;;
  2645                           
  2646                           	psect	text22
  2647  0004D2                     __ptext22:
  2648                           	opt stack 0
  2649  0004D2                     _ADCC_GetSingleConversion:
  2650                           	opt stack 26
  2651                           
  2652                           ; BSR set to: 15
  2653                           ;incstack = 0
  2654                           ;ADCC_GetSingleConversion@channel stored from wreg
  2655  0004D2  6E17               	movwf	ADCC_GetSingleConversion@channel,c
  2656                           
  2657                           ;adcc.c: 134: ADPCH = channel;
  2658  0004D4  C017  FF5F         	movff	ADCC_GetSingleConversion@channel,3935	;volatile
  2659                           
  2660                           ;adcc.c: 137: ADCON0bits.ADON = 1;
  2661  0004D8  8E60               	bsf	3936,7,c	;volatile
  2662                           
  2663                           ;adcc.c: 140: ADCON0bits.ADCONT = 0;
  2664  0004DA  9C60               	bcf	3936,6,c	;volatile
  2665                           
  2666                           ;adcc.c: 143: ADCON0bits.ADGO = 1;
  2667  0004DC  8060               	bsf	3936,0,c	;volatile
  2668  0004DE                     l210:
  2669  0004DE  B060               	btfsc	3936,0,c	;volatile
  2670  0004E0  D7FE               	goto	l210
  2671                           
  2672                           ;adcc.c: 149: }
  2673                           ;adcc.c: 152: return ((adc_result_t)((ADRESH << 8) + ADRESL));
  2674  0004E2  5064               	movf	3940,w,c	;volatile
  2675  0004E4  6E16               	movwf	(??_ADCC_GetSingleConversion+1)& (0+255),c
  2676  0004E6  6A15               	clrf	??_ADCC_GetSingleConversion& (0+255),c
  2677  0004E8  5063               	movf	3939,w,c	;volatile
  2678  0004EA  2415               	addwf	??_ADCC_GetSingleConversion,w,c
  2679  0004EC  6E13               	movwf	?_ADCC_GetSingleConversion,c
  2680  0004EE  0E00               	movlw	0
  2681  0004F0  2016               	addwfc	??_ADCC_GetSingleConversion+1,w,c
  2682  0004F2  6E14               	movwf	?_ADCC_GetSingleConversion+1,c
  2683  0004F4  0012               	return	
  2684  0004F6                     __end_of_ADCC_GetSingleConversion:
  2685                           	opt stack 0
  2686                           tblptru	equ	0xFF8
  2687                           intcon	equ	0xFF2
  2688                           wreg	equ	0xFE8
  2689                           status	equ	0xFD8
  2690                           
  2691 ;; *************** function _INTERRUPT_InterruptManager *****************
  2692 ;; Defined at:
  2693 ;;		line 58 in file "mcc_generated_files/interrupt_manager.c"
  2694 ;; Parameters:    Size  Location     Type
  2695 ;;		None
  2696 ;; Auto vars:     Size  Location     Type
  2697 ;;		None
  2698 ;; Return value:  Size  Location     Type
  2699 ;;                  1    wreg      void 
  2700 ;; Registers used:
  2701 ;;		wreg, status,2, status,0, pclath, tosl, cstack
  2702 ;; Tracked objects:
  2703 ;;		On entry : 0/0
  2704 ;;		On exit  : 0/0
  2705 ;;		Unchanged: 0/0
  2706 ;; Data sizes:     COMRAM   BANK0   BANK1   BANK2   BANK3   BANK4   BANK5   BANK6   BANK7   BANK8   BANK9  BANK10  BANK1
      +1  BANK12  BANK13  BANK14
  2707 ;;      Params:         0       0       0       0       0       0       0       0       0       0       0       0       
      +0       0       0       0
  2708 ;;      Locals:         0       0       0       0       0       0       0       0       0       0       0       0       
      +0       0       0       0
  2709 ;;      Temps:         14       0       0       0       0       0       0       0       0       0       0       0       
      +0       0       0       0
  2710 ;;      Totals:        14       0       0       0       0       0       0       0       0       0       0       0       
      +0       0       0       0
  2711 ;;Total ram usage:       14 bytes
  2712 ;; Hardware stack levels used:    1
  2713 ;; Hardware stack levels required when called:    3
  2714 ;; This function calls:
  2715 ;;		_PIN_MANAGER_IOC
  2716 ;; This function is called by:
  2717 ;;		Interrupt level 2
  2718 ;; This function uses a non-reentrant model
  2719 ;;
  2720                           
  2721                           	psect	intcode
  2722  000008                     __pintcode:
  2723                           	opt stack 0
  2724  000008                     _INTERRUPT_InterruptManager:
  2725                           	opt stack 23
  2726                           
  2727                           ;incstack = 0
  2728  000008  822A               	bsf	btemp,1,c	;set compiler interrupt flag (level 2)
  2729  00000A  CFFA F005          	movff	pclath,??_INTERRUPT_InterruptManager
  2730  00000E  CFFB F006          	movff	pclatu,??_INTERRUPT_InterruptManager+1
  2731  000012  CFE9 F007          	movff	fsr0l,??_INTERRUPT_InterruptManager+2
  2732  000016  CFEA F008          	movff	fsr0h,??_INTERRUPT_InterruptManager+3
  2733  00001A  CFE1 F009          	movff	fsr1l,??_INTERRUPT_InterruptManager+4
  2734  00001E  CFE2 F00A          	movff	fsr1h,??_INTERRUPT_InterruptManager+5
  2735  000022  CFD9 F00B          	movff	fsr2l,??_INTERRUPT_InterruptManager+6
  2736  000026  CFDA F00C          	movff	fsr2h,??_INTERRUPT_InterruptManager+7
  2737  00002A  CFF3 F00D          	movff	prodl,??_INTERRUPT_InterruptManager+8
  2738  00002E  CFF4 F00E          	movff	prodh,??_INTERRUPT_InterruptManager+9
  2739  000032  CFF6 F00F          	movff	tblptrl,??_INTERRUPT_InterruptManager+10
  2740  000036  CFF7 F010          	movff	tblptrh,??_INTERRUPT_InterruptManager+11
  2741  00003A  CFF8 F011          	movff	tblptru,??_INTERRUPT_InterruptManager+12
  2742  00003E  CFF5 F012          	movff	tablat,??_INTERRUPT_InterruptManager+13
  2743                           
  2744                           ;interrupt_manager.c: 61: if(PIE0bits.IOCIE == 1 && PIR0bits.IOCIF == 1)
  2745  000042  010E               	movlb	14	; () banked
  2746  000044  A9C2               	btfss	194,4,b	;volatile
  2747  000046  D004               	goto	i2l41
  2748                           
  2749                           ; BSR set to: 14
  2750  000048  010E               	movlb	14	; () banked
  2751  00004A  B9CA               	btfsc	202,4,b	;volatile
  2752                           
  2753                           ; BSR set to: 14
  2754                           ;interrupt_manager.c: 62: {
  2755                           ;interrupt_manager.c: 64: PIN_MANAGER_IOC();
  2756  00004C  EC35  F003         	call	_PIN_MANAGER_IOC	;wreg free
  2757  000050                     i2l41:
  2758  000050  C012  FFF5         	movff	??_INTERRUPT_InterruptManager+13,tablat
  2759  000054  C011  FFF8         	movff	??_INTERRUPT_InterruptManager+12,tblptru
  2760  000058  C010  FFF7         	movff	??_INTERRUPT_InterruptManager+11,tblptrh
  2761  00005C  C00F  FFF6         	movff	??_INTERRUPT_InterruptManager+10,tblptrl
  2762  000060  C00E  FFF4         	movff	??_INTERRUPT_InterruptManager+9,prodh
  2763  000064  C00D  FFF3         	movff	??_INTERRUPT_InterruptManager+8,prodl
  2764  000068  C00C  FFDA         	movff	??_INTERRUPT_InterruptManager+7,fsr2h
  2765  00006C  C00B  FFD9         	movff	??_INTERRUPT_InterruptManager+6,fsr2l
  2766  000070  C00A  FFE2         	movff	??_INTERRUPT_InterruptManager+5,fsr1h
  2767  000074  C009  FFE1         	movff	??_INTERRUPT_InterruptManager+4,fsr1l
  2768  000078  C008  FFEA         	movff	??_INTERRUPT_InterruptManager+3,fsr0h
  2769  00007C  C007  FFE9         	movff	??_INTERRUPT_InterruptManager+2,fsr0l
  2770  000080  C006  FFFB         	movff	??_INTERRUPT_InterruptManager+1,pclatu
  2771  000084  C005  FFFA         	movff	??_INTERRUPT_InterruptManager,pclath
  2772  000088  922A               	bcf	btemp,1,c	;clear compiler interrupt flag (level 2)
  2773  00008A  0011               	retfie		f
  2774  00008C                     __end_of_INTERRUPT_InterruptManager:
  2775                           	opt stack 0
  2776                           pclatu	equ	0xFFB
  2777                           pclath	equ	0xFFA
  2778                           tblptru	equ	0xFF8
  2779                           tblptrh	equ	0xFF7
  2780                           tblptrl	equ	0xFF6
  2781                           tablat	equ	0xFF5
  2782                           prodh	equ	0xFF4
  2783                           prodl	equ	0xFF3
  2784                           intcon	equ	0xFF2
  2785                           fsr0h	equ	0xFEA
  2786                           fsr0l	equ	0xFE9
  2787                           wreg	equ	0xFE8
  2788                           fsr1h	equ	0xFE2
  2789                           fsr1l	equ	0xFE1
  2790                           fsr2h	equ	0xFDA
  2791                           fsr2l	equ	0xFD9
  2792                           status	equ	0xFD8
  2793                           
  2794 ;; *************** function _PIN_MANAGER_IOC *****************
  2795 ;; Defined at:
  2796 ;;		line 130 in file "mcc_generated_files/pin_manager.c"
  2797 ;; Parameters:    Size  Location     Type
  2798 ;;		None
  2799 ;; Auto vars:     Size  Location     Type
  2800 ;;		None
  2801 ;; Return value:  Size  Location     Type
  2802 ;;                  1    wreg      void 
  2803 ;; Registers used:
  2804 ;;		wreg, status,2, status,0, pclath, tosl, cstack
  2805 ;; Tracked objects:
  2806 ;;		On entry : 0/0
  2807 ;;		On exit  : 0/0
  2808 ;;		Unchanged: 0/0
  2809 ;; Data sizes:     COMRAM   BANK0   BANK1   BANK2   BANK3   BANK4   BANK5   BANK6   BANK7   BANK8   BANK9  BANK10  BANK1
      +1  BANK12  BANK13  BANK14
  2810 ;;      Params:         0       0       0       0       0       0       0       0       0       0       0       0       
      +0       0       0       0
  2811 ;;      Locals:         0       0       0       0       0       0       0       0       0       0       0       0       
      +0       0       0       0
  2812 ;;      Temps:          0       0       0       0       0       0       0       0       0       0       0       0       
      +0       0       0       0
  2813 ;;      Totals:         0       0       0       0       0       0       0       0       0       0       0       0       
      +0       0       0       0
  2814 ;;Total ram usage:        0 bytes
  2815 ;; Hardware stack levels used:    1
  2816 ;; Hardware stack levels required when called:    2
  2817 ;; This function calls:
  2818 ;;		_IOCBF0_ISR
  2819 ;; This function is called by:
  2820 ;;		_INTERRUPT_InterruptManager
  2821 ;; This function uses a non-reentrant model
  2822 ;;
  2823                           
  2824                           	psect	text24
  2825  00066A                     __ptext24:
  2826                           	opt stack 0
  2827  00066A                     _PIN_MANAGER_IOC:
  2828                           	opt stack 23
  2829                           
  2830                           ;pin_manager.c: 133: if(IOCBFbits.IOCBF0 == 1)
  2831                           
  2832                           ;incstack = 0
  2833  00066A  010F               	movlb	15	; () banked
  2834  00066C  A112               	btfss	18,0,b	;volatile
  2835  00066E  0012               	return	
  2836                           
  2837                           ; BSR set to: 15
  2838                           ;pin_manager.c: 134: {
  2839                           ;pin_manager.c: 135: IOCBF0_ISR();
  2840  000670  EC28  F002         	call	_IOCBF0_ISR	;wreg free
  2841  000674  0012               	return	
  2842  000676                     __end_of_PIN_MANAGER_IOC:
  2843                           	opt stack 0
  2844                           pclatu	equ	0xFFB
  2845                           pclath	equ	0xFFA
  2846                           tblptru	equ	0xFF8
  2847                           tblptrh	equ	0xFF7
  2848                           tblptrl	equ	0xFF6
  2849                           tablat	equ	0xFF5
  2850                           prodh	equ	0xFF4
  2851                           prodl	equ	0xFF3
  2852                           intcon	equ	0xFF2
  2853                           fsr0h	equ	0xFEA
  2854                           fsr0l	equ	0xFE9
  2855                           wreg	equ	0xFE8
  2856                           fsr1h	equ	0xFE2
  2857                           fsr1l	equ	0xFE1
  2858                           fsr2h	equ	0xFDA
  2859                           fsr2l	equ	0xFD9
  2860                           status	equ	0xFD8
  2861                           
  2862 ;; *************** function _IOCBF0_ISR *****************
  2863 ;; Defined at:
  2864 ;;		line 144 in file "mcc_generated_files/pin_manager.c"
  2865 ;; Parameters:    Size  Location     Type
  2866 ;;		None
  2867 ;; Auto vars:     Size  Location     Type
  2868 ;;		None
  2869 ;; Return value:  Size  Location     Type
  2870 ;;                  1    wreg      void 
  2871 ;; Registers used:
  2872 ;;		wreg, status,2, status,0, pclath, tosl, cstack
  2873 ;; Tracked objects:
  2874 ;;		On entry : 0/0
  2875 ;;		On exit  : 0/0
  2876 ;;		Unchanged: 0/0
  2877 ;; Data sizes:     COMRAM   BANK0   BANK1   BANK2   BANK3   BANK4   BANK5   BANK6   BANK7   BANK8   BANK9  BANK10  BANK1
      +1  BANK12  BANK13  BANK14
  2878 ;;      Params:         0       0       0       0       0       0       0       0       0       0       0       0       
      +0       0       0       0
  2879 ;;      Locals:         0       0       0       0       0       0       0       0       0       0       0       0       
      +0       0       0       0
  2880 ;;      Temps:          0       0       0       0       0       0       0       0       0       0       0       0       
      +0       0       0       0
  2881 ;;      Totals:         0       0       0       0       0       0       0       0       0       0       0       0       
      +0       0       0       0
  2882 ;;Total ram usage:        0 bytes
  2883 ;; Hardware stack levels used:    1
  2884 ;; Hardware stack levels required when called:    1
  2885 ;; This function calls:
  2886 ;;		Absolute function
  2887 ;;		_DATAEE_WriteByte
  2888 ;;		_IOCBF0_DefaultInterruptHandler
  2889 ;; This function is called by:
  2890 ;;		_PIN_MANAGER_IOC
  2891 ;; This function uses a non-reentrant model
  2892 ;;
  2893                           
  2894                           	psect	text25
  2895  000450                     __ptext25:
  2896                           	opt stack 0
  2897  000450                     _IOCBF0_ISR:
  2898                           	opt stack 23
  2899                           
  2900                           ;pin_manager.c: 147: PIE0bits.IOCIE = 0;
  2901                           
  2902                           ;incstack = 0
  2903  000450  010E               	movlb	14	; () banked
  2904  000452  99C2               	bcf	194,4,b	;volatile
  2905                           
  2906                           ; BSR set to: 14
  2907                           ;pin_manager.c: 152: if(IOCBF0_InterruptHandler)
  2908  000454  5027               	movf	_IOCBF0_InterruptHandler,w,c
  2909  000456  1028               	iorwf	_IOCBF0_InterruptHandler+1,w,c
  2910  000458  B4D8               	btfsc	status,2,c
  2911  00045A  D019               	goto	i2l1885
  2912                           
  2913                           ; BSR set to: 14
  2914                           ;pin_manager.c: 153: {
  2915                           ;pin_manager.c: 154: IOCBF0_InterruptHandler();
  2916  00045C  D801               	call	i2u61_48
  2917  00045E  D00A               	goto	i2l1877
  2918  000460                     i2u61_48:
  2919  000460  0005               	push	
  2920  000462  6EFA               	movwf	pclath,c
  2921  000464  5027               	movf	_IOCBF0_InterruptHandler,w,c
  2922  000466  6EFD               	movwf	tosl,c
  2923  000468  5028               	movf	_IOCBF0_InterruptHandler+1,w,c
  2924  00046A  6EFE               	movwf	tosh,c
  2925  00046C  50F8               	movf	tblptru,w,c
  2926  00046E  6EFF               	movwf	tosu,c
  2927  000470  50FA               	movf	pclath,w,c
  2928  000472  0012               	return		;indir
  2929  000474                     i2l1877:
  2930                           
  2931                           ;pin_manager.c: 155: if (RB0 == 0){
  2932  000474  B08E               	btfsc	3982,0,c	;volatile
  2933  000476  D00B               	goto	i2l1885
  2934                           
  2935                           ;pin_manager.c: 156: color += 1;
  2936  000478  2A29               	incf	_color,f,c
  2937                           
  2938                           ;pin_manager.c: 157: color %= 8;
  2939  00047A  0E07               	movlw	7
  2940  00047C  1629               	andwf	_color,f,c
  2941                           
  2942                           ;pin_manager.c: 158: DATAEE_WriteByte(0x03FE,color);
  2943  00047E  0E03               	movlw	3
  2944  000480  6E02               	movwf	DATAEE_WriteByte@bAdd+1,c
  2945  000482  0EFE               	movlw	254
  2946  000484  6E01               	movwf	DATAEE_WriteByte@bAdd,c
  2947  000486  C029  F003         	movff	_color,DATAEE_WriteByte@bData
  2948  00048A  EC4C  F002         	call	_DATAEE_WriteByte	;wreg free
  2949  00048E                     i2l1885:
  2950                           
  2951                           ;pin_manager.c: 159: }
  2952                           ;pin_manager.c: 161: }
  2953                           ;pin_manager.c: 162: IOCBFbits.IOCBF0 = 0;
  2954  00048E  010F               	movlb	15	; () banked
  2955  000490  9112               	bcf	18,0,b	;volatile
  2956                           
  2957                           ; BSR set to: 15
  2958                           ;pin_manager.c: 164: PIE0bits.IOCIE = 1;
  2959  000492  010E               	movlb	14	; () banked
  2960  000494  89C2               	bsf	194,4,b	;volatile
  2961                           
  2962                           ; BSR set to: 14
  2963  000496  0012               	return		;funcret
  2964  000498                     __end_of_IOCBF0_ISR:
  2965                           	opt stack 0
  2966                           tosu	equ	0xFFF
  2967                           tosh	equ	0xFFE
  2968                           tosl	equ	0xFFD
  2969                           pclatu	equ	0xFFB
  2970                           pclath	equ	0xFFA
  2971                           tblptru	equ	0xFF8
  2972                           tblptrh	equ	0xFF7
  2973                           tblptrl	equ	0xFF6
  2974                           tablat	equ	0xFF5
  2975                           prodh	equ	0xFF4
  2976                           prodl	equ	0xFF3
  2977                           intcon	equ	0xFF2
  2978                           fsr0h	equ	0xFEA
  2979                           fsr0l	equ	0xFE9
  2980                           wreg	equ	0xFE8
  2981                           fsr1h	equ	0xFE2
  2982                           fsr1l	equ	0xFE1
  2983                           fsr2h	equ	0xFDA
  2984                           fsr2l	equ	0xFD9
  2985                           status	equ	0xFD8
  2986                           
  2987 ;; *************** function _IOCBF0_DefaultInterruptHandler *****************
  2988 ;; Defined at:
  2989 ;;		line 179 in file "mcc_generated_files/pin_manager.c"
  2990 ;; Parameters:    Size  Location     Type
  2991 ;;		None
  2992 ;; Auto vars:     Size  Location     Type
  2993 ;;		None
  2994 ;; Return value:  Size  Location     Type
  2995 ;;                  1    wreg      void 
  2996 ;; Registers used:
  2997 ;;		None
  2998 ;; Tracked objects:
  2999 ;;		On entry : 0/0
  3000 ;;		On exit  : 0/0
  3001 ;;		Unchanged: 0/0
  3002 ;; Data sizes:     COMRAM   BANK0   BANK1   BANK2   BANK3   BANK4   BANK5   BANK6   BANK7   BANK8   BANK9  BANK10  BANK1
      +1  BANK12  BANK13  BANK14
  3003 ;;      Params:         0       0       0       0       0       0       0       0       0       0       0       0       
      +0       0       0       0
  3004 ;;      Locals:         0       0       0       0       0       0       0       0       0       0       0       0       
      +0       0       0       0
  3005 ;;      Temps:          0       0       0       0       0       0       0       0       0       0       0       0       
      +0       0       0       0
  3006 ;;      Totals:         0       0       0       0       0       0       0       0       0       0       0       0       
      +0       0       0       0
  3007 ;;Total ram usage:        0 bytes
  3008 ;; Hardware stack levels used:    1
  3009 ;; This function calls:
  3010 ;;		Nothing
  3011 ;; This function is called by:
  3012 ;;		_PIN_MANAGER_Initialize
  3013 ;;		_IOCBF0_ISR
  3014 ;; This function uses a non-reentrant model
  3015 ;;
  3016                           
  3017                           	psect	text26
  3018  000684                     __ptext26:
  3019                           	opt stack 0
  3020  000684                     _IOCBF0_DefaultInterruptHandler:
  3021                           	opt stack 23
  3022                           
  3023                           ; BSR set to: 14
  3024                           ;incstack = 0
  3025  000684  0012               	return		;funcret
  3026  000686                     __end_of_IOCBF0_DefaultInterruptHandler:
  3027                           	opt stack 0
  3028                           tosu	equ	0xFFF
  3029                           tosh	equ	0xFFE
  3030                           tosl	equ	0xFFD
  3031                           pclatu	equ	0xFFB
  3032                           pclath	equ	0xFFA
  3033                           tblptru	equ	0xFF8
  3034                           tblptrh	equ	0xFF7
  3035                           tblptrl	equ	0xFF6
  3036                           tablat	equ	0xFF5
  3037                           prodh	equ	0xFF4
  3038                           prodl	equ	0xFF3
  3039                           intcon	equ	0xFF2
  3040                           fsr0h	equ	0xFEA
  3041                           fsr0l	equ	0xFE9
  3042                           wreg	equ	0xFE8
  3043                           fsr1h	equ	0xFE2
  3044                           fsr1l	equ	0xFE1
  3045                           fsr2h	equ	0xFDA
  3046                           fsr2l	equ	0xFD9
  3047                           status	equ	0xFD8
  3048                           
  3049 ;; *************** function _DATAEE_WriteByte *****************
  3050 ;; Defined at:
  3051 ;;		line 164 in file "mcc_generated_files/memory.c"
  3052 ;; Parameters:    Size  Location     Type
  3053 ;;  bAdd            2    0[COMRAM] unsigned int 
  3054 ;;  bData           1    2[COMRAM] unsigned char 
  3055 ;; Auto vars:     Size  Location     Type
  3056 ;;  GIEBitValue     1    3[COMRAM] unsigned char 
  3057 ;; Return value:  Size  Location     Type
  3058 ;;                  1    wreg      void 
  3059 ;; Registers used:
  3060 ;;		wreg, status,2, status,0
  3061 ;; Tracked objects:
  3062 ;;		On entry : 0/0
  3063 ;;		On exit  : 0/0
  3064 ;;		Unchanged: 0/0
  3065 ;; Data sizes:     COMRAM   BANK0   BANK1   BANK2   BANK3   BANK4   BANK5   BANK6   BANK7   BANK8   BANK9  BANK10  BANK1
      +1  BANK12  BANK13  BANK14
  3066 ;;      Params:         3       0       0       0       0       0       0       0       0       0       0       0       
      +0       0       0       0
  3067 ;;      Locals:         1       0       0       0       0       0       0       0       0       0       0       0       
      +0       0       0       0
  3068 ;;      Temps:          0       0       0       0       0       0       0       0       0       0       0       0       
      +0       0       0       0
  3069 ;;      Totals:         4       0       0       0       0       0       0       0       0       0       0       0       
      +0       0       0       0
  3070 ;;Total ram usage:        4 bytes
  3071 ;; Hardware stack levels used:    1
  3072 ;; This function calls:
  3073 ;;		Nothing
  3074 ;; This function is called by:
  3075 ;;		_IOCBF0_ISR
  3076 ;; This function uses a non-reentrant model
  3077 ;;
  3078                           
  3079                           	psect	text27
  3080  000498                     __ptext27:
  3081                           	opt stack 0
  3082  000498                     _DATAEE_WriteByte:
  3083                           	opt stack 23
  3084                           
  3085                           ;memory.c: 166: uint8_t GIEBitValue = INTCONbits.GIE;
  3086                           
  3087                           ;incstack = 0
  3088  000498  0E00               	movlw	0
  3089  00049A  BEF2               	btfsc	intcon,7,c	;volatile
  3090  00049C  0E01               	movlw	1
  3091  00049E  6E04               	movwf	DATAEE_WriteByte@GIEBitValue,c
  3092                           
  3093                           ;memory.c: 168: NVMADRH = ((bAdd >> 8) & 0x03);
  3094  0004A0  5002               	movf	DATAEE_WriteByte@bAdd+1,w,c
  3095  0004A2  0B03               	andlw	3
  3096  0004A4  6E7F               	movwf	3967,c	;volatile
  3097                           
  3098                           ;memory.c: 169: NVMADRL = (bAdd & 0xFF);
  3099  0004A6  C001  FF7E         	movff	DATAEE_WriteByte@bAdd,3966	;volatile
  3100                           
  3101                           ;memory.c: 170: NVMDAT = bData;
  3102  0004AA  C003  FF80         	movff	DATAEE_WriteByte@bData,3968	;volatile
  3103                           
  3104                           ;memory.c: 171: NVMCON1bits.NVMREG = 0;
  3105  0004AE  0E3F               	movlw	-193
  3106  0004B0  1681               	andwf	3969,f,c	;volatile
  3107                           
  3108                           ;memory.c: 172: NVMCON1bits.WREN = 1;
  3109  0004B2  8481               	bsf	3969,2,c	;volatile
  3110                           
  3111                           ;memory.c: 173: INTCONbits.GIE = 0;
  3112  0004B4  9EF2               	bcf	intcon,7,c	;volatile
  3113                           
  3114                           ;memory.c: 174: NVMCON2 = 0x55;
  3115  0004B6  0E55               	movlw	85
  3116  0004B8  6E82               	movwf	3970,c	;volatile
  3117                           
  3118                           ;memory.c: 175: NVMCON2 = 0xAA;
  3119  0004BA  0EAA               	movlw	170
  3120  0004BC  6E82               	movwf	3970,c	;volatile
  3121                           
  3122                           ;memory.c: 176: NVMCON1bits.WR = 1;
  3123  0004BE  8281               	bsf	3969,1,c	;volatile
  3124  0004C0                     i2l332:
  3125  0004C0  B281               	btfsc	3969,1,c	;volatile
  3126  0004C2  D7FE               	goto	i2l332
  3127                           
  3128                           ;memory.c: 180: }
  3129                           ;memory.c: 182: NVMCON1bits.WREN = 0;
  3130  0004C4  9481               	bcf	3969,2,c	;volatile
  3131                           
  3132                           ;memory.c: 183: INTCONbits.GIE = GIEBitValue;
  3133  0004C6  B004               	btfsc	DATAEE_WriteByte@GIEBitValue,0,c
  3134  0004C8  D002               	bra	i2u57_45
  3135  0004CA  9EF2               	bcf	intcon,7,c	;volatile
  3136  0004CC  D001               	bra	i2u57_46
  3137  0004CE                     i2u57_45:
  3138  0004CE  8EF2               	bsf	intcon,7,c	;volatile
  3139  0004D0                     i2u57_46:
  3140  0004D0  0012               	return		;funcret
  3141  0004D2                     __end_of_DATAEE_WriteByte:
  3142                           	opt stack 0
  3143  0000                     tosu	equ	0xFFF
  3144                           tosh	equ	0xFFE
  3145                           tosl	equ	0xFFD
  3146                           pclatu	equ	0xFFB
  3147                           pclath	equ	0xFFA
  3148                           tblptru	equ	0xFF8
  3149                           tblptrh	equ	0xFF7
  3150                           tblptrl	equ	0xFF6
  3151                           tablat	equ	0xFF5
  3152                           prodh	equ	0xFF4
  3153                           prodl	equ	0xFF3
  3154                           intcon	equ	0xFF2
  3155                           fsr0h	equ	0xFEA
  3156                           fsr0l	equ	0xFE9
  3157                           wreg	equ	0xFE8
  3158                           fsr1h	equ	0xFE2
  3159                           fsr1l	equ	0xFE1
  3160                           fsr2h	equ	0xFDA
  3161                           fsr2l	equ	0xFD9
  3162                           status	equ	0xFD8
  3163                           tosu	equ	0xFFF
  3164                           tosh	equ	0xFFE
  3165                           tosl	equ	0xFFD
  3166                           pclatu	equ	0xFFB
  3167                           pclath	equ	0xFFA
  3168                           tblptru	equ	0xFF8
  3169                           tblptrh	equ	0xFF7
  3170                           tblptrl	equ	0xFF6
  3171                           tablat	equ	0xFF5
  3172                           prodh	equ	0xFF4
  3173                           prodl	equ	0xFF3
  3174                           intcon	equ	0xFF2
  3175                           fsr0h	equ	0xFEA
  3176                           fsr0l	equ	0xFE9
  3177                           wreg	equ	0xFE8
  3178                           fsr1h	equ	0xFE2
  3179                           fsr1l	equ	0xFE1
  3180                           fsr2h	equ	0xFDA
  3181                           fsr2l	equ	0xFD9
  3182                           status	equ	0xFD8
  3183                           
  3184                           	psect	text28
  3185  000000                     __ptext28:
  3186                           	opt stack 0
  3187                           tosu	equ	0xFFF
  3188                           tosh	equ	0xFFE
  3189                           tosl	equ	0xFFD
  3190                           pclatu	equ	0xFFB
  3191                           pclath	equ	0xFFA
  3192                           tblptru	equ	0xFF8
  3193                           tblptrh	equ	0xFF7
  3194                           tblptrl	equ	0xFF6
  3195                           tablat	equ	0xFF5
  3196                           prodh	equ	0xFF4
  3197                           prodl	equ	0xFF3
  3198                           intcon	equ	0xFF2
  3199                           fsr0h	equ	0xFEA
  3200                           fsr0l	equ	0xFE9
  3201                           wreg	equ	0xFE8
  3202                           fsr1h	equ	0xFE2
  3203                           fsr1l	equ	0xFE1
  3204                           fsr2h	equ	0xFDA
  3205                           fsr2l	equ	0xFD9
  3206                           status	equ	0xFD8
  3207                           
  3208                           	psect	rparam
  3209  0000                     tosu	equ	0xFFF
  3210                           tosh	equ	0xFFE
  3211                           tosl	equ	0xFFD
  3212                           pclatu	equ	0xFFB
  3213                           pclath	equ	0xFFA
  3214                           tblptru	equ	0xFF8
  3215                           tblptrh	equ	0xFF7
  3216                           tblptrl	equ	0xFF6
  3217                           tablat	equ	0xFF5
  3218                           prodh	equ	0xFF4
  3219                           prodl	equ	0xFF3
  3220                           intcon	equ	0xFF2
  3221                           fsr0h	equ	0xFEA
  3222                           fsr0l	equ	0xFE9
  3223                           wreg	equ	0xFE8
  3224                           fsr1h	equ	0xFE2
  3225                           fsr1l	equ	0xFE1
  3226                           fsr2h	equ	0xFDA
  3227                           fsr2l	equ	0xFD9
  3228                           status	equ	0xFD8
  3229                           
  3230                           	psect	temp
  3231  00002A                     btemp:
  3232                           	opt stack 0
  3233  00002A                     	ds	1
  3234  0000                     int$flags	set	btemp
  3235                           tosu	equ	0xFFF
  3236                           tosh	equ	0xFFE
  3237                           tosl	equ	0xFFD
  3238                           pclatu	equ	0xFFB
  3239                           pclath	equ	0xFFA
  3240                           tblptru	equ	0xFF8
  3241                           tblptrh	equ	0xFF7
  3242                           tblptrl	equ	0xFF6
  3243                           tablat	equ	0xFF5
  3244                           prodh	equ	0xFF4
  3245                           prodl	equ	0xFF3
  3246                           intcon	equ	0xFF2
  3247                           fsr0h	equ	0xFEA
  3248                           fsr0l	equ	0xFE9
  3249                           wreg	equ	0xFE8
  3250                           fsr1h	equ	0xFE2
  3251                           fsr1l	equ	0xFE1
  3252                           fsr2h	equ	0xFDA
  3253                           fsr2l	equ	0xFD9
  3254                           status	equ	0xFD8


Data Sizes:
    Strings     0
    Constant    0
    Data        0
    BSS         2
    Persistent  1
    Stack       0

Auto Spaces:
    Space          Size  Autos    Used
    COMRAM           94     38      41
    BANK0           160      0       0
    BANK1           256      0       0
    BANK2           256      0       0
    BANK3           256      0       0
    BANK4           256      0       0
    BANK5           256      0       0
    BANK6           256      0       0
    BANK7           256      0       0
    BANK8           256      0       0
    BANK9           256      0       0
    BANK10          256      0       0
    BANK11          256      0       0
    BANK12          256      0       0
    BANK13          256      0       0
    BANK14          126      0       0

Pointer List with Targets:

    IOCBF0_SetInterruptHandler@InterruptHandler	PTR void  size(2) Largest target is 1
		 -> IOCBF0_DefaultInterruptHandler(), 

    IOCBF0_InterruptHandler	PTR FTN()void  size(2) Largest target is 1
		 -> Absolute function(), IOCBF0_DefaultInterruptHandler(), 


Critical Paths under _main in COMRAM

    _main->_blue
    _main->_cyan
    _main->_green
    _main->_magenta
    _main->_red
    _main->_white
    _main->_yellow
    _yellow->_brightness
    _white->_brightness
    _red->_brightness
    _off->_brightness
    _magenta->_brightness
    _green->_brightness
    _cyan->_brightness
    _blue->_brightness
    _SYSTEM_Initialize->_PIN_MANAGER_Initialize
    _PIN_MANAGER_Initialize->_DATAEE_ReadByte
    _PIN_MANAGER_Initialize->_IOCBF0_SetInterruptHandler

Critical Paths under _INTERRUPT_InterruptManager in COMRAM

    _IOCBF0_ISR->_DATAEE_WriteByte

Critical Paths under _main in BANK0

    None.

Critical Paths under _INTERRUPT_InterruptManager in BANK0

    None.

Critical Paths under _main in BANK1

    None.

Critical Paths under _INTERRUPT_InterruptManager in BANK1

    None.

Critical Paths under _main in BANK2

    None.

Critical Paths under _INTERRUPT_InterruptManager in BANK2

    None.

Critical Paths under _main in BANK3

    None.

Critical Paths under _INTERRUPT_InterruptManager in BANK3

    None.

Critical Paths under _main in BANK4

    None.

Critical Paths under _INTERRUPT_InterruptManager in BANK4

    None.

Critical Paths under _main in BANK5

    None.

Critical Paths under _INTERRUPT_InterruptManager in BANK5

    None.

Critical Paths under _main in BANK6

    None.

Critical Paths under _INTERRUPT_InterruptManager in BANK6

    None.

Critical Paths under _main in BANK7

    None.

Critical Paths under _INTERRUPT_InterruptManager in BANK7

    None.

Critical Paths under _main in BANK8

    None.

Critical Paths under _INTERRUPT_InterruptManager in BANK8

    None.

Critical Paths under _main in BANK9

    None.

Critical Paths under _INTERRUPT_InterruptManager in BANK9

    None.

Critical Paths under _main in BANK10

    None.

Critical Paths under _INTERRUPT_InterruptManager in BANK10

    None.

Critical Paths under _main in BANK11

    None.

Critical Paths under _INTERRUPT_InterruptManager in BANK11

    None.

Critical Paths under _main in BANK12

    None.

Critical Paths under _INTERRUPT_InterruptManager in BANK12

    None.

Critical Paths under _main in BANK13

    None.

Critical Paths under _INTERRUPT_InterruptManager in BANK13

    None.

Critical Paths under _main in BANK14

    None.

Critical Paths under _INTERRUPT_InterruptManager in BANK14

    None.

Call Graph Tables:

 ---------------------------------------------------------------------------------
 (Depth) Function   	        Calls       Base Space   Used Autos Params    Refs
 ---------------------------------------------------------------------------------
 (0) _main                                                 7     7      0   20052
                                             31 COMRAM     7     7      0
           _ADCC_GetSingleConversion
                  _SYSTEM_Initialize
                               _blue
                               _cyan
                              _green
                            _magenta
                                _off
                                _red
                              _white
                             _yellow
 ---------------------------------------------------------------------------------
 (1) _yellow                                               1     1      0    2448
                                             30 COMRAM     1     1      0
                         _brightness
 ---------------------------------------------------------------------------------
 (1) _white                                                1     1      0    2448
                                             30 COMRAM     1     1      0
                         _brightness
 ---------------------------------------------------------------------------------
 (1) _red                                                  1     1      0    2448
                                             30 COMRAM     1     1      0
                         _brightness
 ---------------------------------------------------------------------------------
 (1) _off                                                  0     0      0    2426
                         _brightness
 ---------------------------------------------------------------------------------
 (1) _magenta                                              1     1      0    2448
                                             30 COMRAM     1     1      0
                         _brightness
 ---------------------------------------------------------------------------------
 (1) _green                                                1     1      0    2448
                                             30 COMRAM     1     1      0
                         _brightness
 ---------------------------------------------------------------------------------
 (1) _cyan                                                 1     1      0    2448
                                             30 COMRAM     1     1      0
                         _brightness
 ---------------------------------------------------------------------------------
 (1) _blue                                                 1     1      0    2448
                                             30 COMRAM     1     1      0
                         _brightness
 ---------------------------------------------------------------------------------
 (2) _brightness                                          12     9      3    2426
                                             18 COMRAM    12     9      3
                         _allBitsOff
                         _lastBitOff
                          _lastBitOn
                          _oneBitOff
                           _oneBitOn
 ---------------------------------------------------------------------------------
 (3) _lastBitOn                                            0     0      0       0
 ---------------------------------------------------------------------------------
 (3) _lastBitOff                                           0     0      0       0
 ---------------------------------------------------------------------------------
 (3) _allBitsOff                                           0     0      0       0
                          _oneBitOff
                           _oneBitOn
 ---------------------------------------------------------------------------------
 (3) _oneBitOn                                             0     0      0       0
 ---------------------------------------------------------------------------------
 (3) _oneBitOff                                            0     0      0       0
 ---------------------------------------------------------------------------------
 (1) _SYSTEM_Initialize                                    0     0      0     241
                    _ADCC_Initialize
               _INTERRUPT_Initialize
              _OSCILLATOR_Initialize
             _PIN_MANAGER_Initialize
 ---------------------------------------------------------------------------------
 (2) _PIN_MANAGER_Initialize                               3     3      0     241
                                             20 COMRAM     3     3      0
                    _DATAEE_ReadByte
         _IOCBF0_SetInterruptHandler
 ---------------------------------------------------------------------------------
 (3) _IOCBF0_SetInterruptHandler                           2     0      2      98
                                             18 COMRAM     2     0      2
 ---------------------------------------------------------------------------------
 (3) _DATAEE_ReadByte                                      2     0      2     120
                                             18 COMRAM     2     0      2
 ---------------------------------------------------------------------------------
 (2) _OSCILLATOR_Initialize                                0     0      0       0
 ---------------------------------------------------------------------------------
 (2) _INTERRUPT_Initialize                                 0     0      0       0
 ---------------------------------------------------------------------------------
 (2) _ADCC_Initialize                                      0     0      0       0
 ---------------------------------------------------------------------------------
 (1) _ADCC_GetSingleConversion                             5     3      2      22
                                             18 COMRAM     5     3      2
 ---------------------------------------------------------------------------------
 Estimated maximum stack depth 3
 ---------------------------------------------------------------------------------
 (Depth) Function   	        Calls       Base Space   Used Autos Params    Refs
 ---------------------------------------------------------------------------------
 (5) _INTERRUPT_InterruptManager                          14    14      0     241
                                              4 COMRAM    14    14      0
                    _PIN_MANAGER_IOC
 ---------------------------------------------------------------------------------
 (6) _PIN_MANAGER_IOC                                      0     0      0     241
                         _IOCBF0_ISR
 ---------------------------------------------------------------------------------
 (7) _IOCBF0_ISR                                           0     0      0     241
                   Absolute function *
                   _DATAEE_WriteByte
     _IOCBF0_DefaultInterruptHandler *
 ---------------------------------------------------------------------------------
 (8) _IOCBF0_DefaultInterruptHandler                       0     0      0       0
 ---------------------------------------------------------------------------------
 (8) _DATAEE_WriteByte                                     4     1      3     241
                                              0 COMRAM     4     1      3
 ---------------------------------------------------------------------------------
 (8) Absolute function(Fake)                               0     0      0       0
 ---------------------------------------------------------------------------------
 Estimated maximum stack depth 8
 ---------------------------------------------------------------------------------

 Call Graph Graphs:

 _main (ROOT)
   _ADCC_GetSingleConversion
   _SYSTEM_Initialize
     _ADCC_Initialize
     _INTERRUPT_Initialize
     _OSCILLATOR_Initialize
     _PIN_MANAGER_Initialize
       _DATAEE_ReadByte
       _IOCBF0_SetInterruptHandler
   _blue
     _brightness
       _allBitsOff
         _oneBitOff
         _oneBitOn
       _lastBitOff
       _lastBitOn
       _oneBitOff
       _oneBitOn
   _cyan
     _brightness
       _allBitsOff
         _oneBitOff
         _oneBitOn
       _lastBitOff
       _lastBitOn
       _oneBitOff
       _oneBitOn
   _green
     _brightness
       _allBitsOff
         _oneBitOff
         _oneBitOn
       _lastBitOff
       _lastBitOn
       _oneBitOff
       _oneBitOn
   _magenta
     _brightness
       _allBitsOff
         _oneBitOff
         _oneBitOn
       _lastBitOff
       _lastBitOn
       _oneBitOff
       _oneBitOn
   _off
     _brightness
       _allBitsOff
         _oneBitOff
         _oneBitOn
       _lastBitOff
       _lastBitOn
       _oneBitOff
       _oneBitOn
   _red
     _brightness
       _allBitsOff
         _oneBitOff
         _oneBitOn
       _lastBitOff
       _lastBitOn
       _oneBitOff
       _oneBitOn
   _white
     _brightness
       _allBitsOff
         _oneBitOff
         _oneBitOn
       _lastBitOff
       _lastBitOn
       _oneBitOff
       _oneBitOn
   _yellow
     _brightness
       _allBitsOff
         _oneBitOff
         _oneBitOn
       _lastBitOff
       _lastBitOn
       _oneBitOff
       _oneBitOn

 _INTERRUPT_InterruptManager (ROOT)
   _PIN_MANAGER_IOC
     _IOCBF0_ISR
       Absolute function(Fake) *
       _DATAEE_WriteByte *
       _IOCBF0_DefaultInterruptHandler *

 Address spaces:
Name               Size   Autos  Total    Cost      Usage
BIGRAM             E7D      0       0      35        0.0%
EEDATA             400      0       0       0        0.0%
BITBANK13          100      0       0      31        0.0%
BANK13             100      0       0      32        0.0%
BITBANK12          100      0       0      29        0.0%
BANK12             100      0       0      30        0.0%
BITBANK11          100      0       0      27        0.0%
BANK11             100      0       0      28        0.0%
BITBANK10          100      0       0      25        0.0%
BANK10             100      0       0      26        0.0%
BITBANK9           100      0       0      23        0.0%
BANK9              100      0       0      24        0.0%
BITBANK8           100      0       0      21        0.0%
BANK8              100      0       0      22        0.0%
BITBANK7           100      0       0      19        0.0%
BANK7              100      0       0      20        0.0%
BITBANK6           100      0       0      17        0.0%
BANK6              100      0       0      18        0.0%
BITBANK5           100      0       0      15        0.0%
BANK5              100      0       0      16        0.0%
BITBANK4           100      0       0      13        0.0%
BANK4              100      0       0      14        0.0%
BITBANK3           100      0       0      11        0.0%
BANK3              100      0       0      12        0.0%
BITBANK2           100      0       0       9        0.0%
BANK2              100      0       0      10        0.0%
BITBANK1           100      0       0       7        0.0%
BANK1              100      0       0       8        0.0%
BITBANK0            A0      0       0       4        0.0%
BANK0               A0      0       0       5        0.0%
BITBANK14           7E      0       0      33        0.0%
BANK14              7E      0       0      34        0.0%
BITCOMRAM           5E      0       0       0        0.0%
COMRAM              5E     26      29       1       43.6%
BITSFR_2             0      0       0     200        0.0%
SFR_2                0      0       0     200        0.0%
BITSFR_1             0      0       0     200        0.0%
SFR_1                0      0       0     200        0.0%
BITSFR               0      0       0     200        0.0%
SFR                  0      0       0     200        0.0%
STACK                0      0       0       2        0.0%
NULL                 0      0       0       0        0.0%
ABS                  0      0      29       6        0.0%
DATA                 0      0      29       3        0.0%
CODE                 0      0       0       0        0.0%


Microchip Technology PIC18 Macro Assembler V1.42 build -159332390 
Symbol Table                                                                                   Sun Sep 03 20:10:43 2017

                               __CFG_CP$OFF 000000                                         l210 04DE  
                                       l384 0342                                         _GIE 007F97  
                                       _RB0 007C70                                __CFG_CPD$OFF 000000  
                                       u580 0324                                         _off 05EA  
                                       _red 057C                                         tosl 000FFD  
                                       wreg 000FE8                                __CFG_LVP$OFF 000000  
                              __CFG_ZCD$OFF 000000                                        l2001 01DC  
                                      l2003 01E0                                        l2021 0210  
                                      l2013 01FC                                        l2031 022C  
                                      l2015 0200                                        l2007 01EC  
                                      l2111 037A                                        l2033 0230  
                                      l2025 021C                                        l2009 01F0  
                                      l2043 024C                                        l2027 0220  
                                      l2019 020C                                        l2131 03BE  
                                      l2123 03A2                                        l2115 0386  
                                      l2107 0372                                        l2037 023C  
                                      l2045 0252                                        l2141 03E0  
                                      l2039 0240                                        l2135 03CC  
                                      l2127 03B0                                        l2119 0394  
                                      l2145 03E4                                        l2139 03DA  
                                      l1911 00E8                                        l1903 00D4  
                                      l1921 0104                                        l1905 00D8  
                                      l1923 0108                                        l1915 00F4  
                                      l1933 0124                                        l1917 00F8  
                                      l1909 00E4                                        l1941 013A  
                                      l1951 0154                                        l1943 013E  
                                      l1935 0128                                        l1927 0114  
                                      l1961 0170                                        l1929 0118  
                                      l1963 0174                                        l1955 0160  
                                      l1939 0134                                        l1869 0326  
                                      l1981 01A4                                        l1973 0190  
                                      l1957 0164                                        l1949 0150  
                                      l1991 01C0                                        l1975 0194  
                                      l1967 0180                                        l1985 01B0  
                                      l1969 0184                                        l1993 01C6  
                                      l1897 00C4                                        l1995 01CA  
                                      l1987 01B4                                        l1979 01A0  
                                      l1899 00C8                                        ?_off 0001  
                                      ?_red 0001                                        u1037 03E6  
                                      u1047 0628                                        u1057 0602  
                                      u1067 060C                                        u1077 0642  
                                      _LATA 000F83                                        _LATB 000F84  
                                      u1087 02BC                                        _LATC 000F85  
                                      i2l41 0050                                        _WPUA 000F10  
                                      _WPUB 000F18                                        _WPUC 000F20  
                                      _WPUE 000F2D                               __CFG_FCMEN$ON 000000  
                                      _blue 05D4                                        _cyan 05BE  
                                      _main 032A                                        fsr0h 000FEA  
                                      fsr1h 000FE2                                        fsr2h 000FDA  
                                      fsr0l 000FE9                                        fsr1l 000FE1  
                                      fsr2l 000FD9                                        btemp 002A  
                                      red@v 001F                                        prodh 000FF4  
                                      prodl 000FF3                                        start 008C  
                             __CFG_CSWEN$ON 000000                                ___param_bank 000000  
                             __CFG_SCANE$ON 000000                   __size_of_DATAEE_WriteByte 003A  
                                     ??_off 001F                                       ??_red 001F  
            __size_of_OSCILLATOR_Initialize 0020                         __size_of_IOCBF0_ISR 0048  
             __end_of_OSCILLATOR_Initialize 0538                                       ?_blue 0001  
                                     _ADACQ 000F5C                                       _ADACT 000F56  
                                     _ADCAP 000F5D                                       ?_main 0001  
                                     ?_cyan 0001                                       _ADCLK 000F57  
                                     _ADCNT 000F67                                       _ADPCH 000F5F  
                                     _ADREF 000F58                                       _ADPRE 000F5E  
                             __CFG_WDTE$OFF 000000                                       _ADRPT 000F66  
                            __CFG_DEBUG$OFF 000000                                       i2l332 04C0  
                                     _OSCEN 000EDC                                       _TRISA 000F88  
                                     _TRISB 000F89                                       _TRISC 000F8A  
                             __CFG_WRT0$OFF 000000                               __CFG_WRT1$OFF 000000  
                             __CFG_WRT2$OFF 000000                               __CFG_WRT3$OFF 000000  
                            __CFG_EBTR0$OFF 000000                              __CFG_EBTR1$OFF 000000  
                            __CFG_EBTR2$OFF 000000                              __CFG_EBTR3$OFF 000000  
                             __CFG_WRTB$OFF 000000                               __CFG_WRTC$OFF 000000  
                             __CFG_WRTD$OFF 000000                             __end_of_magenta 05A8  
                           _DATAEE_ReadByte 0538                              __CFG_EBTRB$OFF 000000  
                   __end_of_PIN_MANAGER_IOC 0676                                       _color 0029  
                                     _green 05A8                                       blue@v 001F  
                        __CFG_MCLRE$EXTMCLR 000000                                       _white 0566  
                                     main@j 0025                                       cyan@v 001F  
                             brightness@blu 0014                               brightness@grn 0013  
                             brightness@red 0016                                       pclath 000FFA  
                                     tablat 000FF5                                       status 000FD8  
                           __initialization 0612                                __end_of_blue 05EA  
                              __end_of_cyan 05D4                                __end_of_main 03EE  
               ?_INTERRUPT_InterruptManager 0001                                      ??_blue 001F  
                                    ??_main 0020                                      ??_cyan 001F  
                             __activetblptr 000002                     _IOCBF0_InterruptHandler 0027  
                                    _ADACCH 000F71                                      _ADACCL 000F70  
                                    _ADCON0 000F60                                      _ADCON1 000F59  
                                    _ADCON2 000F5A                                      _ADCON3 000F5B  
                                    ?_green 0001                                      _ADPCH0 007AF8  
                                    _ADERRH 000F6F                                      _ADERRL 000F6E  
                                    _ADLTHH 000F6B                                      _ADLTHL 000F6A  
                                    _ADRESH 000F64                                      _ADRESL 000F63  
                                    _ADSTAT 000F65                                      _ADUTHH 000F6D  
                                    _ADUTHL 000F6C                                      ?_white 0001  
                                    _ANSELA 000F11                                      _ANSELB 000F19  
                                    _ANSELC 000F21                                      _ODCONA 000F0F  
                                    _ODCONB 000F17                                      _ODCONC 000F1F  
                            __CFG_WDTCCS$SC 000000                                      i2l1877 0474  
                                    i2l1885 048E                                      _TABLAT 000FF5  
                             main@lastValue 0022                                      _OSCFRQ 000EDE  
                                    _NVMDAT 000F80                              __CFG_PWRTE$OFF 000000  
                            __CFG_XINST$OFF 000000                              __CFG_STVREN$ON 000000  
                          __end_of_oneBitOn 0612                                      _yellow 0550  
                   __end_of_DATAEE_ReadByte 0550                                      green@v 001F  
                                 ??_magenta 001F                              brightness@bit0 001E  
                            brightness@bit1 001D                             _ADCC_Initialize 03EE  
                            brightness@bit2 001C                              brightness@bit3 001B  
                            brightness@bit4 001A                              brightness@bit5 0019  
                            brightness@bit6 0018                              brightness@bit7 0017  
                                    tblptrh 000FF7                                      tblptrl 000FF6  
                                    tblptru 000FF8           __size_of_ADCC_GetSingleConversion 0024  
                                    white@v 001F                   ?_ADCC_GetSingleConversion 0013  
IOCBF0_SetInterruptHandler@InterruptHandler 0013                            ?_PIN_MANAGER_IOC 0001  
                              ??_IOCBF0_ISR 0005               __size_of_INTERRUPT_Initialize 0004  
                         _SYSTEM_Initialize 0648                                  __accesstop 0060  
                   __end_of__initialization 0616                          ?_SYSTEM_Initialize 0001  
                             ___rparam_used 000001                              __pcstackCOMRAM 0001  
                       ??_SYSTEM_Initialize 0018                            _DATAEE_WriteByte 0498  
                             __end_of_green 05BE      __end_of_IOCBF0_DefaultInterruptHandler 0686  
   __size_of_IOCBF0_DefaultInterruptHandler 0002              _IOCBF0_DefaultInterruptHandler 0684  
                             __end_of_white 057C                          __end_of_IOCBF0_ISR 0498  
                                _allBitsOff 04F6                                     ??_green 001F  
                 __end_of_SYSTEM_Initialize 065A                                     ??_white 001F  
                        __size_of_lastBitOn 0012                                  __pnvCOMRAM 0029  
                        __size_of_oneBitOff 0012                             __CFG_PPS1WAY$ON 000000  
                   __end_of_ADCC_Initialize 0450                                     _ADFLTRH 000F73  
                                   _ADFLTRL 000F72                                     _ADPREVH 000F62  
                                   _ADPREVL 000F61                                     _ADSTPTH 000F69  
                                   _ADSTPTL 000F68                                     ?_yellow 0001  
                          ?_DATAEE_ReadByte 0013                                     _OSCCON1 000ED8  
                                   _OSCCON3 000EDA                                  _brightness 0090  
                                   _TBLPTRH 000FF7                                     _TBLPTRL 000FF6  
                                   _TBLPTRU 000FF8                                     _NVMADRH 000F7F  
                                   _NVMADRL 000F7E                                     i2u61_48 0460  
                                   _OSCTUNE 000EDD                                     _NVMCON2 000F82  
                                   i2u57_45 04CE                                     i2u57_46 04D0  
                                   _PPSLOCK 000EA0                        DATAEE_WriteByte@bAdd 0001  
                                 ?_oneBitOn 0001                                  _lastBitOff 065A  
                                   __Hparam 0000                                     __Lparam 0000  
                __CFG_RSTOSC$HFINTOSC_64MHZ 000000                           __end_of_lastBitOn 0636  
                                   __pcinit 0612                                     __ramtop 0F00  
                                   __ptext0 032A                                     __ptext1 0550  
                                   __ptext2 0566                                     __ptext3 057C  
                                   __ptext4 05EA                                     __ptext5 0592  
                                   __ptext6 05A8                                     __ptext7 05BE  
                                   __ptext8 05D4                                     __ptext9 0090  
                           __size_of_yellow 0016                                     _magenta 0592  
                         __end_of_oneBitOff 0648                       _OSCILLATOR_Initialize 0518  
                              __size_of_off 0014                                __size_of_red 0016  
                               ?_allBitsOff 0001                    ??_PIN_MANAGER_Initialize 0015  
                                 _IOCBFbits 000F12                                   _IOCBNbits 000F13  
                                 _IOCBPbits 000F14                  __size_of_SYSTEM_Initialize 0012  
                      end_of_initialization 0616                                  ??_oneBitOn 0013  
                             __Lmediumconst 0000                             brightness@value 0015  
                          ?_ADCC_Initialize 0001                                     yellow@v 001F  
          __end_of_ADCC_GetSingleConversion 04F6                       __CFG_WDTCPS$WDTCPS_31 000000  
                                 _PORTCbits 000F8F                                 ?_brightness 0013  
              ??_IOCBF0_SetInterruptHandler 0015                            __CFG_FEXTOSC$OFF 000000  
                  __end_of_DATAEE_WriteByte 04D2                                 ?_lastBitOff 0001  
                       __size_of_allBitsOff 0022                __end_of_INTERRUPT_Initialize 0684  
       __size_of_IOCBF0_SetInterruptHandler 000A                      ?_OSCILLATOR_Initialize 0001  
                            __end_of_yellow 0566                         start_initialization 0612  
           __size_of_PIN_MANAGER_Initialize 00D2                                 __end_of_off 05FE  
                               __end_of_red 0592                         DATAEE_ReadByte@bAdd 0013  
                  __size_of_PIN_MANAGER_IOC 000C                            __CFG_LPBOREN$OFF 000000  
                       __size_of_brightness 01C8                                    ??_yellow 001F  
                  _ADCC_GetSingleConversion 04D2                         __size_of_lastBitOff 0010  
                               __pbssCOMRAM 0027                           __size_of_oneBitOn 0014  
                    _PIN_MANAGER_Initialize 0258                                   __pintcode 0008  
           ADCC_GetSingleConversion@channel 0017                ??_INTERRUPT_InterruptManager 0005  
                                  ?_magenta 0001                                   _lastBitOn 0624  
                              ??_allBitsOff 0013          __end_of_IOCBF0_SetInterruptHandler 0680  
                _IOCBF0_SetInterruptHandler 0676                                   _oneBitOff 0636  
                            __size_of_green 0016                    __size_of_DATAEE_ReadByte 0018  
                            __size_of_white 0016                        _INTERRUPT_Initialize 0680  
                                  _PIE0bits 000EC2                         __CFG_BORV$VBOR_2P45 000000  
       __size_of_INTERRUPT_InterruptManager 0084                                    _PIR0bits 000ECA  
                                  _PIR7bits 000ED1                          __end_of_allBitsOff 0518  
                         ??_PIN_MANAGER_IOC 0005                                  _ADCON0bits 000F60  
                                _ADCON1bits 000F59                                  _ADCON2bits 000F5A  
                                _ADCON3bits 000F5B                                  ?_lastBitOn 0001  
                                 main@value 0026                                ??_brightness 0016  
                     DATAEE_WriteByte@bData 0003                                  ?_oneBitOff 0001  
                     ?_INTERRUPT_Initialize 0001                           ?_DATAEE_WriteByte 0001  
                              ??_lastBitOff 0013                          ??_DATAEE_WriteByte 0004  
                                _ADSTATbits 000F65                                    __Hrparam 0000  
                                  __Lrparam 0000                          __CFG_BOREN$SBORDIS 000000  
                        __end_of_brightness 0258                     ??_OSCILLATOR_Initialize 0013  
                          __size_of_magenta 0016                    __size_of_ADCC_Initialize 0062  
                        __end_of_lastBitOff 066A                                    __ptext10 0624  
                                  __ptext11 065A                                    __ptext20 0680  
                                  __ptext12 04F6                                    __ptext21 03EE  
                                  __ptext13 05FE                                    __ptext22 04D2  
                                  __ptext14 0636                                    __ptext15 0648  
                                  __ptext24 066A                                    __ptext16 0258  
                                  __ptext25 0450                                    __ptext17 0676  
                                  __ptext26 0684                                    __ptext18 0538  
                                  __ptext27 0498                                    __ptext19 0518  
                                  __ptext28 0000                                  _IOCBF0_ISR 0450  
               DATAEE_WriteByte@GIEBitValue 0004                                    _oneBitOn 05FE  
                             __size_of_blue 0016                               __size_of_cyan 0016  
                             __size_of_main 00C4                           ??_DATAEE_ReadByte 0015  
                      __CFG_WDTCWS$WDTCWS_7 000000                  ??_ADCC_GetSingleConversion 0015  
                                  int$flags 002A          __end_of_INTERRUPT_InterruptManager 008C  
                _INTERRUPT_InterruptManager 0008                                    magenta@v 001F  
                             main@ADC_value 0023                 PIN_MANAGER_Initialize@state 0017  
                               ??_lastBitOn 0013                                  _INTCONbits 000FF2  
                               _NVMCON1bits 000F81                                 ??_oneBitOff 0013  
                    ??_INTERRUPT_Initialize 0013                                    intlevel2 0000  
                   ?_PIN_MANAGER_Initialize 0001                           __CFG_CLKOUTEN$OFF 000000  
                               _PPSLOCKbits 000EA0                 ?_IOCBF0_SetInterruptHandler 0013  
                              _ADACTPPSbits 000EAE                                 ?_IOCBF0_ISR 0001  
            __end_of_PIN_MANAGER_Initialize 032A                           ??_ADCC_Initialize 0013  
          ??_IOCBF0_DefaultInterruptHandler 0001             ?_IOCBF0_DefaultInterruptHandler 0001  
                           _PIN_MANAGER_IOC 066A  
